

Microchip MPLAB XC8 Assembler V2.20 build 20200408173844 
                                                                                               Fri Apr 30 20:57:14 2021

Microchip MPLAB XC8 C Compiler v2.20 (Free license) build 20200408173844 Og1 
     1                           	processor	16F877A
     2                           	pagewidth 120
     3                           	opt	flic
     4                           	psect	idataBANK0,global,class=CODE,delta=2,noexec
     5                           	psect	idataBANK1,global,class=CODE,delta=2,noexec
     6                           	psect	idataBANK3,global,class=CODE,delta=2,noexec
     7                           	psect	nvBANK1,global,class=BANK1,space=1,delta=1,noexec
     8                           	psect	cinit,global,class=CODE,merge=1,delta=2
     9                           	psect	bssBANK0,global,class=BANK0,space=1,delta=1,noexec
    10                           	psect	dataBANK0,global,class=BANK0,space=1,delta=1,noexec
    11                           	psect	bssBANK1,global,class=BANK1,space=1,delta=1,noexec
    12                           	psect	dataBANK1,global,class=BANK1,space=1,delta=1,noexec
    13                           	psect	dataBANK3,global,class=BANK3,space=1,delta=1,noexec
    14                           	psect	inittext,global,class=CODE,delta=2
    15                           	psect	cstackBANK3,global,class=BANK3,space=1,delta=1,noexec
    16                           	psect	cstackBANK1,global,class=BANK1,space=1,delta=1,noexec
    17                           	psect	cstackCOMMON,global,class=COMMON,space=1,delta=1,noexec
    18                           	psect	cstackBANK0,global,class=BANK0,space=1,delta=1,noexec
    19                           	psect	maintext,global,class=CODE,split=1,delta=2
    20                           	psect	text1,local,class=CODE,merge=1,delta=2
    21                           	psect	text2,local,class=CODE,merge=1,delta=2
    22                           	psect	text3,local,class=CODE,merge=1,delta=2
    23                           	psect	text4,local,class=CODE,merge=1,delta=2,group=1
    24                           	psect	text5,local,class=CODE,merge=1,delta=2
    25                           	psect	text6,local,class=CODE,merge=1,delta=2
    26                           	psect	text7,local,class=CODE,merge=1,delta=2,group=1
    27                           	psect	text8,local,class=CODE,merge=1,delta=2,group=1
    28                           	psect	text9,local,class=CODE,merge=1,delta=2
    29                           	psect	text10,local,class=CODE,merge=1,delta=2
    30                           	psect	text11,local,class=CODE,merge=1,delta=2
    31                           	psect	text12,local,class=CODE,merge=1,delta=2
    32                           	psect	text13,local,class=CODE,merge=1,delta=2
    33                           	psect	text14,local,class=CODE,merge=1,delta=2
    34                           	psect	text15,local,class=CODE,merge=1,delta=2
    35                           	psect	text16,local,class=CODE,merge=1,delta=2
    36                           	psect	text17,local,class=CODE,merge=1,delta=2
    37                           	psect	text18,local,class=CODE,merge=1,delta=2
    38                           	psect	text19,local,class=CODE,merge=1,delta=2
    39                           	psect	text20,local,class=CODE,merge=1,delta=2
    40                           	psect	intentry,global,class=CODE,delta=2
    41                           	psect	text21,local,class=CODE,merge=1,delta=2
    42                           	psect	text22,local,class=CODE,merge=1,delta=2
    43                           	psect	text23,local,class=CODE,merge=1,delta=2
    44                           	psect	text24,local,class=CODE,merge=1,delta=2
    45                           	psect	text25,local,class=CODE,merge=1,delta=2
    46                           	psect	text26,local,class=CODE,merge=1,delta=2
    47                           	psect	text27,local,class=CODE,merge=1,delta=2
    48                           	psect	text28,local,class=CODE,merge=1,delta=2
    49                           	psect	text29,local,class=CODE,merge=1,delta=2
    50                           	psect	text30,local,class=CODE,merge=1,delta=2,group=1
    51                           	psect	text31,local,class=CODE,merge=1,delta=2,group=1
    52                           	psect	text32,local,class=CODE,merge=1,delta=2
    53                           	psect	text33,local,class=CODE,merge=1,delta=2
    54                           	psect	text34,local,class=CODE,merge=1,delta=2,group=1
    55                           	psect	text35,local,class=CODE,merge=1,delta=2,group=1
    56                           	psect	text36,local,class=CODE,merge=1,delta=2,group=1
    57                           	psect	text37,local,class=CODE,merge=1,delta=2
    58                           	psect	text38,local,class=CODE,merge=1,delta=2
    59                           	psect	text39,local,class=CODE,merge=1,delta=2
    60                           	psect	text40,local,class=CODE,merge=1,delta=2,group=1
    61                           	psect	text41,local,class=CODE,merge=1,delta=2,group=1
    62                           	psect	text42,local,class=CODE,merge=1,delta=2
    63                           	psect	text43,local,class=CODE,merge=1,delta=2
    64                           	psect	text44,local,class=CODE,merge=1,delta=2
    65                           	psect	functab,global,class=ENTRY,delta=2
    66                           	psect	config,global,abs,ovrld,class=CONFIG,space=4,delta=2,noexec
    67                           	dabs	1,0x7E,2
    68  0000                     
    69                           ; Version 2.20
    70                           ; Generated 12/02/2020 GMT
    71                           ; 
    72                           ; Copyright © 2020, Microchip Technology Inc. and its subsidiaries ("Microchip")
    73                           ; All rights reserved.
    74                           ; 
    75                           ; This software is developed by Microchip Technology Inc. and its subsidiaries ("Microch
      +                          ip").
    76                           ; 
    77                           ; Redistribution and use in source and binary forms, with or without modification, are
    78                           ; permitted provided that the following conditions are met:
    79                           ; 
    80                           ;     1. Redistributions of source code must retain the above copyright notice, this lis
      +                          t of
    81                           ;        conditions and the following disclaimer.
    82                           ; 
    83                           ;     2. Redistributions in binary form must reproduce the above copyright notice, this 
      +                          list
    84                           ;        of conditions and the following disclaimer in the documentation and/or other
    85                           ;        materials provided with the distribution.
    86                           ; 
    87                           ;     3. Microchip's name may not be used to endorse or promote products derived from th
      +                          is
    88                           ;        software without specific prior written permission.
    89                           ; 
    90                           ; THIS SOFTWARE IS PROVIDED BY MICROCHIP "AS IS" AND ANY EXPRESS OR IMPLIED WARRANTIES,
    91                           ; INCLUDING, BUT NOT LIMITED TO, THE IMPLIED WARRANTIES OF MERCHANTABILITY AND FITNESS F
      +                          OR
    92                           ; PURPOSE ARE DISCLAIMED.  IN NO EVENT SHALL MICROCHIP BE LIABLE FOR ANY DIRECT, INDIREC
      +                          T,
    93                           ; INCIDENTAL, SPECIAL, EXEMPLARY, OR CONSEQUENTIAL DAMAGES (INCLUDING BUT NOT LIMITED TO
    94                           ; PROCUREMENT OF SUBSTITUTE GOODS OR SERVICES; LOSS OF USE, DATA OR PROFITS; OR BUSINESS
    95                           ; INTERRUPTION) HOWSOEVER CAUSED AND ON ANY THEORY OF LIABILITY, WHETHER IN CONTRACT, ST
      +                          RICT
    96                           ; LIABILITY, OR TORT (INCLUDING NEGLIGENCE OR OTHERWISE) ARISING IN ANY WAY OUT OF THE U
      +                          SE OF
    97                           ; THIS SOFTWARE, EVEN IF ADVISED OF THE POSSIBILITY OF SUCH DAMAGE.
    98                           ; 
    99                           ; 
   100                           ; Code-generator required, PIC16F877A Definitions
   101                           ; 
   102                           ; SFR Addresses
   103  0000                     	;# 
   104  0001                     	;# 
   105  0002                     	;# 
   106  0003                     	;# 
   107  0004                     	;# 
   108  0005                     	;# 
   109  0006                     	;# 
   110  0007                     	;# 
   111  0008                     	;# 
   112  0009                     	;# 
   113  000A                     	;# 
   114  000B                     	;# 
   115  000C                     	;# 
   116  000D                     	;# 
   117  000E                     	;# 
   118  000E                     	;# 
   119  000F                     	;# 
   120  0010                     	;# 
   121  0011                     	;# 
   122  0012                     	;# 
   123  0013                     	;# 
   124  0014                     	;# 
   125  0015                     	;# 
   126  0015                     	;# 
   127  0016                     	;# 
   128  0017                     	;# 
   129  0018                     	;# 
   130  0019                     	;# 
   131  001A                     	;# 
   132  001B                     	;# 
   133  001B                     	;# 
   134  001C                     	;# 
   135  001D                     	;# 
   136  001E                     	;# 
   137  001F                     	;# 
   138  0081                     	;# 
   139  0085                     	;# 
   140  0086                     	;# 
   141  0087                     	;# 
   142  0088                     	;# 
   143  0089                     	;# 
   144  008C                     	;# 
   145  008D                     	;# 
   146  008E                     	;# 
   147  0091                     	;# 
   148  0092                     	;# 
   149  0093                     	;# 
   150  0094                     	;# 
   151  0098                     	;# 
   152  0099                     	;# 
   153  009C                     	;# 
   154  009D                     	;# 
   155  009E                     	;# 
   156  009F                     	;# 
   157  010C                     	;# 
   158  010D                     	;# 
   159  010E                     	;# 
   160  010F                     	;# 
   161  018C                     	;# 
   162  018D                     	;# 
   163  0000                     	;# 
   164  0001                     	;# 
   165  0002                     	;# 
   166  0003                     	;# 
   167  0004                     	;# 
   168  0005                     	;# 
   169  0006                     	;# 
   170  0007                     	;# 
   171  0008                     	;# 
   172  0009                     	;# 
   173  000A                     	;# 
   174  000B                     	;# 
   175  000C                     	;# 
   176  000D                     	;# 
   177  000E                     	;# 
   178  000E                     	;# 
   179  000F                     	;# 
   180  0010                     	;# 
   181  0011                     	;# 
   182  0012                     	;# 
   183  0013                     	;# 
   184  0014                     	;# 
   185  0015                     	;# 
   186  0015                     	;# 
   187  0016                     	;# 
   188  0017                     	;# 
   189  0018                     	;# 
   190  0019                     	;# 
   191  001A                     	;# 
   192  001B                     	;# 
   193  001B                     	;# 
   194  001C                     	;# 
   195  001D                     	;# 
   196  001E                     	;# 
   197  001F                     	;# 
   198  0081                     	;# 
   199  0085                     	;# 
   200  0086                     	;# 
   201  0087                     	;# 
   202  0088                     	;# 
   203  0089                     	;# 
   204  008C                     	;# 
   205  008D                     	;# 
   206  008E                     	;# 
   207  0091                     	;# 
   208  0092                     	;# 
   209  0093                     	;# 
   210  0094                     	;# 
   211  0098                     	;# 
   212  0099                     	;# 
   213  009C                     	;# 
   214  009D                     	;# 
   215  009E                     	;# 
   216  009F                     	;# 
   217  010C                     	;# 
   218  010D                     	;# 
   219  010E                     	;# 
   220  010F                     	;# 
   221  018C                     	;# 
   222  018D                     	;# 
   223  0000                     	;# 
   224  0001                     	;# 
   225  0002                     	;# 
   226  0003                     	;# 
   227  0004                     	;# 
   228  0005                     	;# 
   229  0006                     	;# 
   230  0007                     	;# 
   231  0008                     	;# 
   232  0009                     	;# 
   233  000A                     	;# 
   234  000B                     	;# 
   235  000C                     	;# 
   236  000D                     	;# 
   237  000E                     	;# 
   238  000E                     	;# 
   239  000F                     	;# 
   240  0010                     	;# 
   241  0011                     	;# 
   242  0012                     	;# 
   243  0013                     	;# 
   244  0014                     	;# 
   245  0015                     	;# 
   246  0015                     	;# 
   247  0016                     	;# 
   248  0017                     	;# 
   249  0018                     	;# 
   250  0019                     	;# 
   251  001A                     	;# 
   252  001B                     	;# 
   253  001B                     	;# 
   254  001C                     	;# 
   255  001D                     	;# 
   256  001E                     	;# 
   257  001F                     	;# 
   258  0081                     	;# 
   259  0085                     	;# 
   260  0086                     	;# 
   261  0087                     	;# 
   262  0088                     	;# 
   263  0089                     	;# 
   264  008C                     	;# 
   265  008D                     	;# 
   266  008E                     	;# 
   267  0091                     	;# 
   268  0092                     	;# 
   269  0093                     	;# 
   270  0094                     	;# 
   271  0098                     	;# 
   272  0099                     	;# 
   273  009C                     	;# 
   274  009D                     	;# 
   275  009E                     	;# 
   276  009F                     	;# 
   277  010C                     	;# 
   278  010D                     	;# 
   279  010E                     	;# 
   280  010F                     	;# 
   281  018C                     	;# 
   282  018D                     	;# 
   283  0000                     	;# 
   284  0001                     	;# 
   285  0002                     	;# 
   286  0003                     	;# 
   287  0004                     	;# 
   288  0005                     	;# 
   289  0006                     	;# 
   290  0007                     	;# 
   291  0008                     	;# 
   292  0009                     	;# 
   293  000A                     	;# 
   294  000B                     	;# 
   295  000C                     	;# 
   296  000D                     	;# 
   297  000E                     	;# 
   298  000E                     	;# 
   299  000F                     	;# 
   300  0010                     	;# 
   301  0011                     	;# 
   302  0012                     	;# 
   303  0013                     	;# 
   304  0014                     	;# 
   305  0015                     	;# 
   306  0015                     	;# 
   307  0016                     	;# 
   308  0017                     	;# 
   309  0018                     	;# 
   310  0019                     	;# 
   311  001A                     	;# 
   312  001B                     	;# 
   313  001B                     	;# 
   314  001C                     	;# 
   315  001D                     	;# 
   316  001E                     	;# 
   317  001F                     	;# 
   318  0081                     	;# 
   319  0085                     	;# 
   320  0086                     	;# 
   321  0087                     	;# 
   322  0088                     	;# 
   323  0089                     	;# 
   324  008C                     	;# 
   325  008D                     	;# 
   326  008E                     	;# 
   327  0091                     	;# 
   328  0092                     	;# 
   329  0093                     	;# 
   330  0094                     	;# 
   331  0098                     	;# 
   332  0099                     	;# 
   333  009C                     	;# 
   334  009D                     	;# 
   335  009E                     	;# 
   336  009F                     	;# 
   337  010C                     	;# 
   338  010D                     	;# 
   339  010E                     	;# 
   340  010F                     	;# 
   341  018C                     	;# 
   342  018D                     	;# 
   343  0000                     	;# 
   344  0001                     	;# 
   345  0002                     	;# 
   346  0003                     	;# 
   347  0004                     	;# 
   348  0005                     	;# 
   349  0006                     	;# 
   350  0007                     	;# 
   351  0008                     	;# 
   352  0009                     	;# 
   353  000A                     	;# 
   354  000B                     	;# 
   355  000C                     	;# 
   356  000D                     	;# 
   357  000E                     	;# 
   358  000E                     	;# 
   359  000F                     	;# 
   360  0010                     	;# 
   361  0011                     	;# 
   362  0012                     	;# 
   363  0013                     	;# 
   364  0014                     	;# 
   365  0015                     	;# 
   366  0015                     	;# 
   367  0016                     	;# 
   368  0017                     	;# 
   369  0018                     	;# 
   370  0019                     	;# 
   371  001A                     	;# 
   372  001B                     	;# 
   373  001B                     	;# 
   374  001C                     	;# 
   375  001D                     	;# 
   376  001E                     	;# 
   377  001F                     	;# 
   378  0081                     	;# 
   379  0085                     	;# 
   380  0086                     	;# 
   381  0087                     	;# 
   382  0088                     	;# 
   383  0089                     	;# 
   384  008C                     	;# 
   385  008D                     	;# 
   386  008E                     	;# 
   387  0091                     	;# 
   388  0092                     	;# 
   389  0093                     	;# 
   390  0094                     	;# 
   391  0098                     	;# 
   392  0099                     	;# 
   393  009C                     	;# 
   394  009D                     	;# 
   395  009E                     	;# 
   396  009F                     	;# 
   397  010C                     	;# 
   398  010D                     	;# 
   399  010E                     	;# 
   400  010F                     	;# 
   401  018C                     	;# 
   402  018D                     	;# 
   403  0000                     	;# 
   404  0001                     	;# 
   405  0002                     	;# 
   406  0003                     	;# 
   407  0004                     	;# 
   408  0005                     	;# 
   409  0006                     	;# 
   410  0007                     	;# 
   411  0008                     	;# 
   412  0009                     	;# 
   413  000A                     	;# 
   414  000B                     	;# 
   415  000C                     	;# 
   416  000D                     	;# 
   417  000E                     	;# 
   418  000E                     	;# 
   419  000F                     	;# 
   420  0010                     	;# 
   421  0011                     	;# 
   422  0012                     	;# 
   423  0013                     	;# 
   424  0014                     	;# 
   425  0015                     	;# 
   426  0015                     	;# 
   427  0016                     	;# 
   428  0017                     	;# 
   429  0018                     	;# 
   430  0019                     	;# 
   431  001A                     	;# 
   432  001B                     	;# 
   433  001B                     	;# 
   434  001C                     	;# 
   435  001D                     	;# 
   436  001E                     	;# 
   437  001F                     	;# 
   438  0081                     	;# 
   439  0085                     	;# 
   440  0086                     	;# 
   441  0087                     	;# 
   442  0088                     	;# 
   443  0089                     	;# 
   444  008C                     	;# 
   445  008D                     	;# 
   446  008E                     	;# 
   447  0091                     	;# 
   448  0092                     	;# 
   449  0093                     	;# 
   450  0094                     	;# 
   451  0098                     	;# 
   452  0099                     	;# 
   453  009C                     	;# 
   454  009D                     	;# 
   455  009E                     	;# 
   456  009F                     	;# 
   457  010C                     	;# 
   458  010D                     	;# 
   459  010E                     	;# 
   460  010F                     	;# 
   461  018C                     	;# 
   462  018D                     	;# 
   463  0000                     	;# 
   464  0001                     	;# 
   465  0002                     	;# 
   466  0003                     	;# 
   467  0004                     	;# 
   468  0005                     	;# 
   469  0006                     	;# 
   470  0007                     	;# 
   471  0008                     	;# 
   472  0009                     	;# 
   473  000A                     	;# 
   474  000B                     	;# 
   475  000C                     	;# 
   476  000D                     	;# 
   477  000E                     	;# 
   478  000E                     	;# 
   479  000F                     	;# 
   480  0010                     	;# 
   481  0011                     	;# 
   482  0012                     	;# 
   483  0013                     	;# 
   484  0014                     	;# 
   485  0015                     	;# 
   486  0015                     	;# 
   487  0016                     	;# 
   488  0017                     	;# 
   489  0018                     	;# 
   490  0019                     	;# 
   491  001A                     	;# 
   492  001B                     	;# 
   493  001B                     	;# 
   494  001C                     	;# 
   495  001D                     	;# 
   496  001E                     	;# 
   497  001F                     	;# 
   498  0081                     	;# 
   499  0085                     	;# 
   500  0086                     	;# 
   501  0087                     	;# 
   502  0088                     	;# 
   503  0089                     	;# 
   504  008C                     	;# 
   505  008D                     	;# 
   506  008E                     	;# 
   507  0091                     	;# 
   508  0092                     	;# 
   509  0093                     	;# 
   510  0094                     	;# 
   511  0098                     	;# 
   512  0099                     	;# 
   513  009C                     	;# 
   514  009D                     	;# 
   515  009E                     	;# 
   516  009F                     	;# 
   517  010C                     	;# 
   518  010D                     	;# 
   519  010E                     	;# 
   520  010F                     	;# 
   521  018C                     	;# 
   522  018D                     	;# 
   523  0000                     	;# 
   524  0001                     	;# 
   525  0002                     	;# 
   526  0003                     	;# 
   527  0004                     	;# 
   528  0005                     	;# 
   529  0006                     	;# 
   530  0007                     	;# 
   531  0008                     	;# 
   532  0009                     	;# 
   533  000A                     	;# 
   534  000B                     	;# 
   535  000C                     	;# 
   536  000D                     	;# 
   537  000E                     	;# 
   538  000E                     	;# 
   539  000F                     	;# 
   540  0010                     	;# 
   541  0011                     	;# 
   542  0012                     	;# 
   543  0013                     	;# 
   544  0014                     	;# 
   545  0015                     	;# 
   546  0015                     	;# 
   547  0016                     	;# 
   548  0017                     	;# 
   549  0018                     	;# 
   550  0019                     	;# 
   551  001A                     	;# 
   552  001B                     	;# 
   553  001B                     	;# 
   554  001C                     	;# 
   555  001D                     	;# 
   556  001E                     	;# 
   557  001F                     	;# 
   558  0081                     	;# 
   559  0085                     	;# 
   560  0086                     	;# 
   561  0087                     	;# 
   562  0088                     	;# 
   563  0089                     	;# 
   564  008C                     	;# 
   565  008D                     	;# 
   566  008E                     	;# 
   567  0091                     	;# 
   568  0092                     	;# 
   569  0093                     	;# 
   570  0094                     	;# 
   571  0098                     	;# 
   572  0099                     	;# 
   573  009C                     	;# 
   574  009D                     	;# 
   575  009E                     	;# 
   576  009F                     	;# 
   577  010C                     	;# 
   578  010D                     	;# 
   579  010E                     	;# 
   580  010F                     	;# 
   581  018C                     	;# 
   582  018D                     	;# 
   583  0000                     	;# 
   584  0001                     	;# 
   585  0002                     	;# 
   586  0003                     	;# 
   587  0004                     	;# 
   588  0005                     	;# 
   589  0006                     	;# 
   590  0007                     	;# 
   591  0008                     	;# 
   592  0009                     	;# 
   593  000A                     	;# 
   594  000B                     	;# 
   595  000C                     	;# 
   596  000D                     	;# 
   597  000E                     	;# 
   598  000E                     	;# 
   599  000F                     	;# 
   600  0010                     	;# 
   601  0011                     	;# 
   602  0012                     	;# 
   603  0013                     	;# 
   604  0014                     	;# 
   605  0015                     	;# 
   606  0015                     	;# 
   607  0016                     	;# 
   608  0017                     	;# 
   609  0018                     	;# 
   610  0019                     	;# 
   611  001A                     	;# 
   612  001B                     	;# 
   613  001B                     	;# 
   614  001C                     	;# 
   615  001D                     	;# 
   616  001E                     	;# 
   617  001F                     	;# 
   618  0081                     	;# 
   619  0085                     	;# 
   620  0086                     	;# 
   621  0087                     	;# 
   622  0088                     	;# 
   623  0089                     	;# 
   624  008C                     	;# 
   625  008D                     	;# 
   626  008E                     	;# 
   627  0091                     	;# 
   628  0092                     	;# 
   629  0093                     	;# 
   630  0094                     	;# 
   631  0098                     	;# 
   632  0099                     	;# 
   633  009C                     	;# 
   634  009D                     	;# 
   635  009E                     	;# 
   636  009F                     	;# 
   637  010C                     	;# 
   638  010D                     	;# 
   639  010E                     	;# 
   640  010F                     	;# 
   641  018C                     	;# 
   642  018D                     	;# 
   643  0000                     	;# 
   644  0001                     	;# 
   645  0002                     	;# 
   646  0003                     	;# 
   647  0004                     	;# 
   648  0005                     	;# 
   649  0006                     	;# 
   650  0007                     	;# 
   651  0008                     	;# 
   652  0009                     	;# 
   653  000A                     	;# 
   654  000B                     	;# 
   655  000C                     	;# 
   656  000D                     	;# 
   657  000E                     	;# 
   658  000E                     	;# 
   659  000F                     	;# 
   660  0010                     	;# 
   661  0011                     	;# 
   662  0012                     	;# 
   663  0013                     	;# 
   664  0014                     	;# 
   665  0015                     	;# 
   666  0015                     	;# 
   667  0016                     	;# 
   668  0017                     	;# 
   669  0018                     	;# 
   670  0019                     	;# 
   671  001A                     	;# 
   672  001B                     	;# 
   673  001B                     	;# 
   674  001C                     	;# 
   675  001D                     	;# 
   676  001E                     	;# 
   677  001F                     	;# 
   678  0081                     	;# 
   679  0085                     	;# 
   680  0086                     	;# 
   681  0087                     	;# 
   682  0088                     	;# 
   683  0089                     	;# 
   684  008C                     	;# 
   685  008D                     	;# 
   686  008E                     	;# 
   687  0091                     	;# 
   688  0092                     	;# 
   689  0093                     	;# 
   690  0094                     	;# 
   691  0098                     	;# 
   692  0099                     	;# 
   693  009C                     	;# 
   694  009D                     	;# 
   695  009E                     	;# 
   696  009F                     	;# 
   697  010C                     	;# 
   698  010D                     	;# 
   699  010E                     	;# 
   700  010F                     	;# 
   701  018C                     	;# 
   702  018D                     	;# 
   703  0000                     	;# 
   704  0001                     	;# 
   705  0002                     	;# 
   706  0003                     	;# 
   707  0004                     	;# 
   708  0005                     	;# 
   709  0006                     	;# 
   710  0007                     	;# 
   711  0008                     	;# 
   712  0009                     	;# 
   713  000A                     	;# 
   714  000B                     	;# 
   715  000C                     	;# 
   716  000D                     	;# 
   717  000E                     	;# 
   718  000E                     	;# 
   719  000F                     	;# 
   720  0010                     	;# 
   721  0011                     	;# 
   722  0012                     	;# 
   723  0013                     	;# 
   724  0014                     	;# 
   725  0015                     	;# 
   726  0015                     	;# 
   727  0016                     	;# 
   728  0017                     	;# 
   729  0018                     	;# 
   730  0019                     	;# 
   731  001A                     	;# 
   732  001B                     	;# 
   733  001B                     	;# 
   734  001C                     	;# 
   735  001D                     	;# 
   736  001E                     	;# 
   737  001F                     	;# 
   738  0081                     	;# 
   739  0085                     	;# 
   740  0086                     	;# 
   741  0087                     	;# 
   742  0088                     	;# 
   743  0089                     	;# 
   744  008C                     	;# 
   745  008D                     	;# 
   746  008E                     	;# 
   747  0091                     	;# 
   748  0092                     	;# 
   749  0093                     	;# 
   750  0094                     	;# 
   751  0098                     	;# 
   752  0099                     	;# 
   753  009C                     	;# 
   754  009D                     	;# 
   755  009E                     	;# 
   756  009F                     	;# 
   757  010C                     	;# 
   758  010D                     	;# 
   759  010E                     	;# 
   760  010F                     	;# 
   761  018C                     	;# 
   762  018D                     	;# 
   763                           
   764                           	psect	idataBANK0
   765  15D8                     __pidataBANK0:
   766                           
   767                           ;initializer for _SetNum
   768  15D8  343F               	retlw	63
   769  15D9  3406               	retlw	6
   770  15DA  345B               	retlw	91
   771  15DB  344F               	retlw	79
   772  15DC  3466               	retlw	102
   773  15DD  346D               	retlw	109
   774  15DE  347D               	retlw	125
   775  15DF  3407               	retlw	7
   776  15E0  347F               	retlw	127
   777  15E1  346F               	retlw	111
   778                           
   779                           	psect	idataBANK1
   780  0003                     __pidataBANK1:
   781                           
   782                           ;initializer for _Sleep_Mode
   783  0003  3401               	retlw	1
   784                           
   785                           	psect	idataBANK3
   786  15B5                     __pidataBANK3:
   787                           
   788                           ;initializer for _current_Temp
   789  15B5  3400               	retlw	0
   790  15B6  3400               	retlw	0
   791  15B7  34DC               	retlw	220
   792  15B8  3441               	retlw	65
   793                           
   794                           ;initializer for _Temperature
   795  15B9  343C               	retlw	60
   796                           
   797                           	psect	nvBANK1
   798  00D3                     __pnvBANK1:
   799  00D3                     _EX_INT_CallBack:
   800  00D3                     	ds	1
   801  000E                     _TMR1	set	14
   802  001E                     _ADRESH	set	30
   803  0013                     _SSPBUF	set	19
   804  0008                     _PORTD	set	8
   805  0005                     _PORTAbits	set	5
   806  0006                     _PORTBbits	set	6
   807  005C                     _INTE	set	92
   808  003A                     _RC2	set	58
   809  00FA                     _GO_nDONE	set	250
   810  00FA                     _GO_DONE	set	250
   811  00F8                     _ADON	set	248
   812  00FC                     _CHS1	set	252
   813  0063                     _SSPIF	set	99
   814  00A5                     _SSPEN	set	165
   815  00A3                     _SSPM3	set	163
   816  005E                     _PEIE	set	94
   817  005F                     _GIE	set	95
   818  0080                     _TMR1ON	set	128
   819  0081                     _TMR1CS	set	129
   820  0037                     _RB7	set	55
   821  003D                     _RC5	set	61
   822  0060                     _TMR1IF	set	96
   823  0059                     _INTF	set	89
   824  009E                     _ADRESL	set	158
   825  0093                     _SSPADD	set	147
   826  0094                     _SSPSTAT	set	148
   827  0091                     _SSPCON2	set	145
   828  0088                     _TRISD	set	136
   829  0086                     _TRISB	set	134
   830  040E                     _INTEDG	set	1038
   831  0430                     _TRISB0	set	1072
   832  0431                     _TRISB1	set	1073
   833  0432                     _TRISB2	set	1074
   834  043A                     _TRISC2	set	1082
   835  043D                     _TRISC5	set	1085
   836  0437                     _TRISB7	set	1079
   837  04FF                     _ADFM	set	1279
   838  04F8                     _PCFG0	set	1272
   839  04FB                     _PCFG3	set	1275
   840  04FE                     _ADCS2	set	1278
   841  048B                     _RCEN	set	1163
   842  048E                     _ACKSTAT	set	1166
   843  048C                     _ACKEN	set	1164
   844  048D                     _ACKDT	set	1165
   845  048A                     _PEN	set	1162
   846  0489                     _RSEN	set	1161
   847  0488                     _SEN	set	1160
   848  043C                     _TRISC4	set	1084
   849  043B                     _TRISC3	set	1083
   850  0460                     _TMR1IE	set	1120
   851  042D                     _TRISA5	set	1069
   852  042C                     _TRISA4	set	1068
   853                           
   854                           	psect	cinit
   855  0015                     start_initialization:	
   856                           ; #config settings
   857                           
   858  0015                     __initialization:
   859                           
   860                           ; Initialize objects allocated to BANK3
   861  0015  1783               	bsf	3,7	;select IRP bank2
   862  0016  30B7               	movlw	low (__pdataBANK3+5)
   863  0017  00FD               	movwf	btemp+-1
   864  0018  3015               	movlw	high __pidataBANK3
   865  0019  00FE               	movwf	btemp
   866  001A  30B5               	movlw	low __pidataBANK3
   867  001B  00FF               	movwf	btemp+1
   868  001C  30B2               	movlw	low __pdataBANK3
   869  001D  0084               	movwf	4
   870  001E  160A  118A  2679  120A  118A  	fcall	init_ram0
   871                           
   872                           ; Initialize objects allocated to BANK1
   873  0023  1683               	bsf	3,5	;RP0=1, select bank1
   874  0024  1303               	bcf	3,6	;RP1=0, select bank1
   875  0025  120A  118A  2003  120A  118A  	fcall	__pidataBANK1	;fetch initializer
   876  002A  00D4               	movwf	__pdataBANK1& (0+127)
   877                           
   878                           ; Initialize objects allocated to BANK0
   879  002B  1383               	bcf	3,7	;select IRP bank0
   880  002C  306D               	movlw	low (__pdataBANK0+10)
   881  002D  00FD               	movwf	btemp+-1
   882  002E  3015               	movlw	high __pidataBANK0
   883  002F  00FE               	movwf	btemp
   884  0030  30D8               	movlw	low __pidataBANK0
   885  0031  00FF               	movwf	btemp+1
   886  0032  3063               	movlw	low __pdataBANK0
   887  0033  0084               	movwf	4
   888  0034  160A  118A  2679  120A  118A  	fcall	init_ram0
   889                           
   890                           ; Clear objects allocated to BANK1
   891  0039  01C8               	clrf	__pbssBANK1& (0+127)
   892  003A  01C9               	clrf	(__pbssBANK1+1)& (0+127)
   893  003B  01CA               	clrf	(__pbssBANK1+2)& (0+127)
   894  003C  01CB               	clrf	(__pbssBANK1+3)& (0+127)
   895  003D  01CC               	clrf	(__pbssBANK1+4)& (0+127)
   896  003E  01CD               	clrf	(__pbssBANK1+5)& (0+127)
   897  003F  01CE               	clrf	(__pbssBANK1+6)& (0+127)
   898  0040  01CF               	clrf	(__pbssBANK1+7)& (0+127)
   899  0041  01D0               	clrf	(__pbssBANK1+8)& (0+127)
   900  0042  01D1               	clrf	(__pbssBANK1+9)& (0+127)
   901  0043  01D2               	clrf	(__pbssBANK1+10)& (0+127)
   902                           
   903                           ; Clear objects allocated to BANK0
   904  0044  1283               	bcf	3,5	;RP0=0, select bank0
   905  0045  1303               	bcf	3,6	;RP1=0, select bank0
   906  0046  01ED               	clrf	__pbssBANK0& (0+127)
   907  0047  01EE               	clrf	(__pbssBANK0+1)& (0+127)
   908  0048  01EF               	clrf	(__pbssBANK0+2)& (0+127)
   909  0049                     end_of_initialization:	
   910                           ;End of C runtime variable initialization code
   911                           
   912  0049                     __end_of__initialization:
   913  0049  0183               	clrf	3
   914  004A  120A  158A  2A93   	ljmp	_main	;jump to C main() function
   915                           
   916                           	psect	bssBANK0
   917  006D                     __pbssBANK0:
   918  006D                     _Num_Digit:
   919  006D                     	ds	2
   920  006F                     _Select_Seg:
   921  006F                     	ds	1
   922                           
   923                           	psect	dataBANK0
   924  0063                     __pdataBANK0:
   925  0063                     _SetNum:
   926  0063                     	ds	10
   927                           
   928                           	psect	bssBANK1
   929  00C8                     __pbssBANK1:
   930  00C8                     ISR_CallBack@Heating_LED_Flag:
   931  00C8                     	ds	2
   932  00CA                     _Sec5:
   933  00CA                     	ds	2
   934  00CC                     _Sec1:
   935  00CC                     	ds	2
   936  00CE                     ISR_CallBack@Milli_Sec:
   937  00CE                     	ds	1
   938  00CF                     ISR_CallBack@i:
   939  00CF                     	ds	1
   940  00D0                     _Setting_Mode:
   941  00D0                     	ds	1
   942  00D1                     _INT2:
   943  00D1                     	ds	1
   944  00D2                     _INT1:
   945  00D2                     	ds	1
   946                           
   947                           	psect	dataBANK1
   948  00D4                     __pdataBANK1:
   949  00D4                     _Sleep_Mode:
   950  00D4                     	ds	1
   951                           
   952                           	psect	dataBANK3
   953  01B2                     __pdataBANK3:
   954  01B2                     _current_Temp:
   955  01B2                     	ds	4
   956  01B6                     _Temperature:
   957  01B6                     	ds	1
   958                           
   959                           	psect	inittext
   960  1675                     init_fetch0:	
   961                           ;	Called with low address in FSR and high address in W
   962                           
   963  1675  087E               	movf	btemp,w
   964  1676  008A               	movwf	10
   965  1677  087F               	movf	btemp+1,w
   966  1678  0082               	movwf	2
   967  1679                     init_ram0:	
   968                           ;Called with:
   969                           ;	high address of idata address in btemp 
   970                           ;	low address of idata address in btemp+1 
   971                           ;	low address of data in FSR
   972                           ;	high address + 1 of data in btemp-1
   973                           
   974  1679  160A  118A  2675  160A  118A  	fcall	init_fetch0
   975  167E  0080               	movwf	0
   976  167F  0A84               	incf	4,f
   977  1680  0804               	movf	4,w
   978  1681  067D               	xorwf	btemp+-1,w
   979  1682  1903               	btfsc	3,2
   980  1683  3400               	retlw	0
   981  1684  0AFF               	incf	btemp+1,f
   982  1685  1903               	btfsc	3,2
   983  1686  0AFE               	incf	btemp,f
   984  1687  2E79               	goto	init_ram0
   985                           
   986                           	psect	cstackBANK3
   987  0190                     __pcstackBANK3:
   988  0190                     ??_EX_Interrupt_INIT:
   989  0190                     ??_ADC_INIT:	
   990                           ; 1 bytes @ 0x0
   991                           
   992  0190                     ??_Timer_INIT:	
   993                           ; 1 bytes @ 0x0
   994                           
   995  0190                     ??_SSD_INIT:	
   996                           ; 1 bytes @ 0x0
   997                           
   998  0190                     ??_Buttons_INIT:	
   999                           ; 1 bytes @ 0x0
  1000                           
  1001  0190                     ??_Heating_and_Cooling_INIT:	
  1002                           ; 1 bytes @ 0x0
  1003                           
  1004  0190                     ??_Wait_IdleState:	
  1005                           ; 1 bytes @ 0x0
  1006                           
  1007  0190                     ??_I2C_Start:	
  1008                           ; 1 bytes @ 0x0
  1009                           
  1010  0190                     ??_I2C_Stop:	
  1011                           ; 1 bytes @ 0x0
  1012                           
  1013  0190                     ??_I2C_NACK:	
  1014                           ; 1 bytes @ 0x0
  1015                           
  1016  0190                     ??_I2C_Write_Address:	
  1017                           ; 1 bytes @ 0x0
  1018                           
  1019  0190                     ??_I2C_Write_Data:	
  1020                           ; 1 bytes @ 0x0
  1021                           
  1022  0190                     ??_I2C_Read_Data:	
  1023                           ; 1 bytes @ 0x0
  1024                           
  1025  0190                     ?___lldiv:	
  1026                           ; 1 bytes @ 0x0
  1027                           
  1028  0190                     ?___xxtofl:	
  1029                           ; 4 bytes @ 0x0
  1030                           
  1031  0190                     I2C_Write_Address@Address:	
  1032                           ; 4 bytes @ 0x0
  1033                           
  1034  0190                     I2C_Write_Data@Data:	
  1035                           ; 1 bytes @ 0x0
  1036                           
  1037  0190                     EX_Interrupt_INIT@PtrToFunc:	
  1038                           ; 1 bytes @ 0x0
  1039                           
  1040  0190                     ___lldiv@divisor:	
  1041                           ; 1 bytes @ 0x0
  1042                           
  1043  0190                     ___xxtofl@val:	
  1044                           ; 4 bytes @ 0x0
  1045                           
  1046                           
  1047                           ; 4 bytes @ 0x0
  1048  0190                     	ds	1
  1049  0191                     ?_EEPROM_Read:
  1050  0191                     EEPROM_Read@address:	
  1051                           ; 1 bytes @ 0x1
  1052                           
  1053                           
  1054                           ; 1 bytes @ 0x1
  1055  0191                     	ds	1
  1056  0192                     EEPROM_Read@Data:
  1057                           
  1058                           ; 1 bytes @ 0x2
  1059  0192                     	ds	1
  1060  0193                     ??_EEPROM_Read:
  1061  0193                     EEPROM_Read@page:	
  1062                           ; 1 bytes @ 0x3
  1063                           
  1064                           
  1065                           ; 1 bytes @ 0x3
  1066  0193                     	ds	1
  1067  0194                     ??___xxtofl:
  1068  0194                     ___lldiv@dividend:	
  1069                           ; 1 bytes @ 0x4
  1070                           
  1071                           
  1072                           ; 4 bytes @ 0x4
  1073  0194                     	ds	4
  1074  0198                     ??___lldiv:
  1075  0198                     ___xxtofl@sign:	
  1076                           ; 1 bytes @ 0x8
  1077                           
  1078                           
  1079                           ; 1 bytes @ 0x8
  1080  0198                     	ds	1
  1081  0199                     ___xxtofl@exp:
  1082  0199                     ___lldiv@quotient:	
  1083                           ; 1 bytes @ 0x9
  1084                           
  1085                           
  1086                           ; 4 bytes @ 0x9
  1087  0199                     	ds	1
  1088  019A                     ___xxtofl@arg:
  1089                           
  1090                           ; 4 bytes @ 0xA
  1091  019A                     	ds	3
  1092  019D                     ___lldiv@counter:
  1093                           
  1094                           ; 1 bytes @ 0xD
  1095  019D                     	ds	1
  1096  019E                     ?___flge:
  1097  019E                     ?_Master_INIT:	
  1098                           ; 1 bit 
  1099                           
  1100  019E                     Master_INIT@I2C_BaudRate:	
  1101                           ; 1 bytes @ 0xE
  1102                           
  1103  019E                     ___flge@ff1:	
  1104                           ; 4 bytes @ 0xE
  1105                           
  1106                           
  1107                           ; 4 bytes @ 0xE
  1108  019E                     	ds	4
  1109  01A2                     ??_Master_INIT:
  1110  01A2                     ___flge@ff2:	
  1111                           ; 1 bytes @ 0x12
  1112                           
  1113                           
  1114                           ; 4 bytes @ 0x12
  1115  01A2                     	ds	4
  1116  01A6                     ??___flge:
  1117                           
  1118                           ; 1 bytes @ 0x16
  1119  01A6                     	ds	4
  1120  01AA                     ?_Heating_and_Cooling:
  1121  01AA                     Heating_and_Cooling@Temperature:	
  1122                           ; 1 bytes @ 0x1A
  1123                           
  1124                           
  1125                           ; 1 bytes @ 0x1A
  1126  01AA                     	ds	1
  1127  01AB                     ??_Heating_and_Cooling:
  1128                           
  1129                           ; 1 bytes @ 0x1B
  1130  01AB                     	ds	4
  1131  01AF                     Heating_and_Cooling@current_Temp:
  1132                           
  1133                           ; 1 bytes @ 0x1F
  1134  01AF                     	ds	1
  1135  01B0                     ??_main:
  1136                           
  1137                           ; 1 bytes @ 0x20
  1138  01B0                     	ds	2
  1139                           
  1140                           	psect	cstackBANK1
  1141  00A0                     __pcstackBANK1:
  1142  00A0                     ISR_CallBack@Temp_average:
  1143                           
  1144                           ; 40 bytes @ 0x0
  1145  00A0                     	ds	40
  1146                           
  1147                           	psect	cstackCOMMON
  1148  0070                     __pcstackCOMMON:
  1149  0070                     ?_EX_Interrupt_INIT:
  1150  0070                     ?_ISR_CallBack:	
  1151                           ; 1 bytes @ 0x0
  1152                           
  1153  0070                     ?_ADC_INIT:	
  1154                           ; 1 bytes @ 0x0
  1155                           
  1156  0070                     ?_Timer_INIT:	
  1157                           ; 1 bytes @ 0x0
  1158                           
  1159  0070                     ?_SSD_INIT:	
  1160                           ; 1 bytes @ 0x0
  1161                           
  1162  0070                     ?_Buttons_INIT:	
  1163                           ; 1 bytes @ 0x0
  1164                           
  1165  0070                     ?_Heating_and_Cooling_INIT:	
  1166                           ; 1 bytes @ 0x0
  1167                           
  1168  0070                     ?_Disable_Display:	
  1169                           ; 1 bytes @ 0x0
  1170                           
  1171  0070                     ??_Disable_Display:	
  1172                           ; 1 bytes @ 0x0
  1173                           
  1174  0070                     ?_Disable_Heating_and_Cooling:	
  1175                           ; 1 bytes @ 0x0
  1176                           
  1177  0070                     ??_Disable_Heating_and_Cooling:	
  1178                           ; 1 bytes @ 0x0
  1179                           
  1180  0070                     ?_Display_Num:	
  1181                           ; 1 bytes @ 0x0
  1182                           
  1183  0070                     ?_main:	
  1184                           ; 1 bytes @ 0x0
  1185                           
  1186  0070                     ?_decrease_Temp:	
  1187                           ; 1 bytes @ 0x0
  1188                           
  1189  0070                     ?_increase_Temp:	
  1190                           ; 1 bytes @ 0x0
  1191                           
  1192  0070                     ?_Seperate_Num:	
  1193                           ; 1 bytes @ 0x0
  1194                           
  1195  0070                     ?_Select_Digit:	
  1196                           ; 1 bytes @ 0x0
  1197                           
  1198  0070                     ??_Select_Digit:	
  1199                           ; 1 bytes @ 0x0
  1200                           
  1201  0070                     ?_Wait_IdleState:	
  1202                           ; 1 bytes @ 0x0
  1203                           
  1204  0070                     ?_I2C_Start:	
  1205                           ; 1 bytes @ 0x0
  1206                           
  1207  0070                     ?_I2C_Stop:	
  1208                           ; 1 bytes @ 0x0
  1209                           
  1210  0070                     ?_I2C_NACK:	
  1211                           ; 1 bytes @ 0x0
  1212                           
  1213  0070                     ?_I2C_Write_Address:	
  1214                           ; 1 bytes @ 0x0
  1215                           
  1216  0070                     ?_I2C_Write_Data:	
  1217                           ; 1 bytes @ 0x0
  1218                           
  1219  0070                     ?_I2C_Read_Data:	
  1220                           ; 1 bytes @ 0x0
  1221                           
  1222  0070                     ?_ISR:	
  1223                           ; 1 bytes @ 0x0
  1224                           
  1225  0070                     ?i1_Wait_IdleState:	
  1226                           ; 1 bytes @ 0x0
  1227                           
  1228  0070                     ??i1_Wait_IdleState:	
  1229                           ; 1 bytes @ 0x0
  1230                           
  1231  0070                     ?i1_I2C_Start:	
  1232                           ; 1 bytes @ 0x0
  1233                           
  1234  0070                     ??i1_I2C_Start:	
  1235                           ; 1 bytes @ 0x0
  1236                           
  1237  0070                     ?i1_I2C_Stop:	
  1238                           ; 1 bytes @ 0x0
  1239                           
  1240  0070                     ??i1_I2C_Stop:	
  1241                           ; 1 bytes @ 0x0
  1242                           
  1243  0070                     ?i1_I2C_Write_Address:	
  1244                           ; 1 bytes @ 0x0
  1245                           
  1246  0070                     ??i1_I2C_Write_Address:	
  1247                           ; 1 bytes @ 0x0
  1248                           
  1249  0070                     ?i1_I2C_Write_Data:	
  1250                           ; 1 bytes @ 0x0
  1251                           
  1252  0070                     ??i1_I2C_Write_Data:	
  1253                           ; 1 bytes @ 0x0
  1254                           
  1255  0070                     ?__Umul8_16:	
  1256                           ; 1 bytes @ 0x0
  1257                           
  1258  0070                     ?_ADC_Read:	
  1259                           ; 2 bytes @ 0x0
  1260                           
  1261  0070                     ?___awdiv:	
  1262                           ; 2 bytes @ 0x0
  1263                           
  1264  0070                     ?___awmod:	
  1265                           ; 2 bytes @ 0x0
  1266                           
  1267  0070                     ?___fltol:	
  1268                           ; 2 bytes @ 0x0
  1269                           
  1270  0070                     ?___fladd:	
  1271                           ; 4 bytes @ 0x0
  1272                           
  1273  0070                     __Umul8_16@multiplicand:	
  1274                           ; 4 bytes @ 0x0
  1275                           
  1276  0070                     i1I2C_Write_Address@Address:	
  1277                           ; 1 bytes @ 0x0
  1278                           
  1279  0070                     i1I2C_Write_Data@Data:	
  1280                           ; 1 bytes @ 0x0
  1281                           
  1282  0070                     ___awdiv@divisor:	
  1283                           ; 1 bytes @ 0x0
  1284                           
  1285  0070                     ___awmod@divisor:	
  1286                           ; 2 bytes @ 0x0
  1287                           
  1288  0070                     ___fltol@f1:	
  1289                           ; 2 bytes @ 0x0
  1290                           
  1291  0070                     ___fladd@b:	
  1292                           ; 4 bytes @ 0x0
  1293                           
  1294                           
  1295                           ; 4 bytes @ 0x0
  1296  0070                     	ds	1
  1297  0071                     ?_EEPROM_Write:
  1298  0071                     EEPROM_Write@address:	
  1299                           ; 1 bytes @ 0x1
  1300                           
  1301                           
  1302                           ; 1 bytes @ 0x1
  1303  0071                     	ds	1
  1304  0072                     ??__Umul8_16:
  1305  0072                     ??_ADC_Read:	
  1306                           ; 1 bytes @ 0x2
  1307                           
  1308  0072                     ?i1___xxtofl:	
  1309                           ; 1 bytes @ 0x2
  1310                           
  1311  0072                     Select_Digit@Digit:	
  1312                           ; 4 bytes @ 0x2
  1313                           
  1314  0072                     EEPROM_Write@Data:	
  1315                           ; 1 bytes @ 0x2
  1316                           
  1317  0072                     ___awdiv@dividend:	
  1318                           ; 1 bytes @ 0x2
  1319                           
  1320  0072                     ___awmod@dividend:	
  1321                           ; 2 bytes @ 0x2
  1322                           
  1323  0072                     i1___xxtofl@val:	
  1324                           ; 2 bytes @ 0x2
  1325                           
  1326                           
  1327                           ; 4 bytes @ 0x2
  1328  0072                     	ds	1
  1329  0073                     ??_EEPROM_Write:
  1330  0073                     EEPROM_Write@page:	
  1331                           ; 1 bytes @ 0x3
  1332                           
  1333                           
  1334                           ; 1 bytes @ 0x3
  1335  0073                     	ds	1
  1336  0074                     ??_decrease_Temp:
  1337  0074                     ??_increase_Temp:	
  1338                           ; 1 bytes @ 0x4
  1339                           
  1340  0074                     ??___awdiv:	
  1341                           ; 1 bytes @ 0x4
  1342                           
  1343  0074                     ??___awmod:	
  1344                           ; 1 bytes @ 0x4
  1345                           
  1346  0074                     ??___fltol:	
  1347                           ; 1 bytes @ 0x4
  1348                           
  1349  0074                     ___awdiv@counter:	
  1350                           ; 1 bytes @ 0x4
  1351                           
  1352  0074                     ___awmod@counter:	
  1353                           ; 1 bytes @ 0x4
  1354                           
  1355  0074                     __Umul8_16@product:	
  1356                           ; 1 bytes @ 0x4
  1357                           
  1358  0074                     ___fladd@a:	
  1359                           ; 2 bytes @ 0x4
  1360                           
  1361                           
  1362                           ; 4 bytes @ 0x4
  1363  0074                     	ds	1
  1364  0075                     ___awdiv@sign:
  1365  0075                     ___awmod@sign:	
  1366                           ; 1 bytes @ 0x5
  1367                           
  1368                           
  1369                           ; 1 bytes @ 0x5
  1370  0075                     	ds	1
  1371  0076                     ??i1___xxtofl:
  1372  0076                     ___awdiv@quotient:	
  1373                           ; 1 bytes @ 0x6
  1374                           
  1375  0076                     __Umul8_16@word_mpld:	
  1376                           ; 2 bytes @ 0x6
  1377                           
  1378                           
  1379                           ; 2 bytes @ 0x6
  1380  0076                     	ds	2
  1381  0078                     ??_Seperate_Num:
  1382  0078                     ___fltol@sign1:	
  1383                           ; 1 bytes @ 0x8
  1384                           
  1385  0078                     ___fladd@signs:	
  1386                           ; 1 bytes @ 0x8
  1387                           
  1388  0078                     __Umul8_16@multiplier:	
  1389                           ; 1 bytes @ 0x8
  1390                           
  1391                           
  1392                           ; 1 bytes @ 0x8
  1393  0078                     	ds	1
  1394  0079                     ___fltol@exp1:
  1395  0079                     ___fladd@aexp:	
  1396                           ; 1 bytes @ 0x9
  1397                           
  1398                           
  1399                           ; 1 bytes @ 0x9
  1400  0079                     	ds	1
  1401  007A                     ??_Sense_Temp:
  1402  007A                     Seperate_Num@Num:	
  1403                           ; 1 bytes @ 0xA
  1404                           
  1405  007A                     ___fladd@bexp:	
  1406                           ; 1 bytes @ 0xA
  1407                           
  1408                           
  1409                           ; 1 bytes @ 0xA
  1410  007A                     	ds	1
  1411  007B                     ??_Display_Num:
  1412  007B                     Display_Num@Temp:	
  1413                           ; 1 bytes @ 0xB
  1414                           
  1415  007B                     ___fladd@grs:	
  1416                           ; 1 bytes @ 0xB
  1417                           
  1418                           
  1419                           ; 1 bytes @ 0xB
  1420  007B                     	ds	3
  1421                           
  1422                           	psect	cstackBANK0
  1423  0020                     __pcstackBANK0:
  1424  0020                     ??___fladd:
  1425  0020                     i1___xxtofl@sign:	
  1426                           ; 1 bytes @ 0x0
  1427                           
  1428                           
  1429                           ; 1 bytes @ 0x0
  1430  0020                     	ds	1
  1431  0021                     i1___xxtofl@exp:
  1432                           
  1433                           ; 1 bytes @ 0x1
  1434  0021                     	ds	1
  1435  0022                     i1___xxtofl@arg:
  1436                           
  1437                           ; 4 bytes @ 0x2
  1438  0022                     	ds	4
  1439  0026                     ?___flmul:
  1440  0026                     ___flmul@b:	
  1441                           ; 4 bytes @ 0x6
  1442                           
  1443                           
  1444                           ; 4 bytes @ 0x6
  1445  0026                     	ds	4
  1446  002A                     ___flmul@a:
  1447                           
  1448                           ; 4 bytes @ 0xA
  1449  002A                     	ds	4
  1450  002E                     ??___flmul:
  1451                           
  1452                           ; 1 bytes @ 0xE
  1453  002E                     	ds	5
  1454  0033                     ___flmul@sign:
  1455                           
  1456                           ; 1 bytes @ 0x13
  1457  0033                     	ds	1
  1458  0034                     ___flmul@grs:
  1459                           
  1460                           ; 4 bytes @ 0x14
  1461  0034                     	ds	4
  1462  0038                     ___flmul@aexp:
  1463                           
  1464                           ; 1 bytes @ 0x18
  1465  0038                     	ds	1
  1466  0039                     ___flmul@bexp:
  1467                           
  1468                           ; 1 bytes @ 0x19
  1469  0039                     	ds	1
  1470  003A                     ___flmul@prod:
  1471                           
  1472                           ; 4 bytes @ 0x1A
  1473  003A                     	ds	4
  1474  003E                     ___flmul@temp:
  1475                           
  1476                           ; 2 bytes @ 0x1E
  1477  003E                     	ds	2
  1478  0040                     ?___fldiv:
  1479  0040                     ___fldiv@a:	
  1480                           ; 4 bytes @ 0x20
  1481                           
  1482                           
  1483                           ; 4 bytes @ 0x20
  1484  0040                     	ds	4
  1485  0044                     ___fldiv@b:
  1486                           
  1487                           ; 4 bytes @ 0x24
  1488  0044                     	ds	4
  1489  0048                     ??___fldiv:
  1490                           
  1491                           ; 1 bytes @ 0x28
  1492  0048                     	ds	5
  1493  004D                     ___fldiv@rem:
  1494                           
  1495                           ; 4 bytes @ 0x2D
  1496  004D                     	ds	4
  1497  0051                     ___fldiv@sign:
  1498                           
  1499                           ; 1 bytes @ 0x31
  1500  0051                     	ds	1
  1501  0052                     ___fldiv@new_exp:
  1502                           
  1503                           ; 2 bytes @ 0x32
  1504  0052                     	ds	2
  1505  0054                     ___fldiv@grs:
  1506                           
  1507                           ; 4 bytes @ 0x34
  1508  0054                     	ds	4
  1509  0058                     ___fldiv@bexp:
  1510                           
  1511                           ; 1 bytes @ 0x38
  1512  0058                     	ds	1
  1513  0059                     ___fldiv@aexp:
  1514                           
  1515                           ; 1 bytes @ 0x39
  1516  0059                     	ds	1
  1517  005A                     ?_Sense_Temp:
  1518                           
  1519                           ; 4 bytes @ 0x3A
  1520  005A                     	ds	4
  1521  005E                     ??_ISR_CallBack:
  1522                           
  1523                           ; 1 bytes @ 0x3E
  1524  005E                     	ds	1
  1525  005F                     ??_ISR:
  1526                           
  1527                           ; 1 bytes @ 0x3F
  1528  005F                     	ds	4
  1529                           
  1530                           	psect	maintext
  1531  0A93                     __pmaintext:	
  1532 ;;
  1533 ;;Main: autosize = 0, tempsize = 2, incstack = 0, save=0
  1534 ;;
  1535 ;; *************** function _main *****************
  1536 ;; Defined at:
  1537 ;;		line 57 in file "main.c"
  1538 ;; Parameters:    Size  Location     Type
  1539 ;;		None
  1540 ;; Auto vars:     Size  Location     Type
  1541 ;;		None
  1542 ;; Return value:  Size  Location     Type
  1543 ;;                  1    wreg      void 
  1544 ;; Registers used:
  1545 ;;		wreg, fsr0l, fsr0h, status,2, status,0, btemp+1, pclath, cstack
  1546 ;; Tracked objects:
  1547 ;;		On entry : B00/0
  1548 ;;		On exit  : 0/0
  1549 ;;		Unchanged: 0/0
  1550 ;; Data sizes:     COMMON   BANK0   BANK1   BANK3   BANK2
  1551 ;;      Params:         0       0       0       0       0
  1552 ;;      Locals:         0       0       0       0       0
  1553 ;;      Temps:          0       0       0       2       0
  1554 ;;      Totals:         0       0       0       2       0
  1555 ;;Total ram usage:        2 bytes
  1556 ;; Hardware stack levels required when called:    9
  1557 ;; This function calls:
  1558 ;;		_ADC_INIT
  1559 ;;		_Buttons_INIT
  1560 ;;		_EEPROM_Read
  1561 ;;		_EX_Interrupt_INIT
  1562 ;;		_Heating_and_Cooling
  1563 ;;		_Heating_and_Cooling_INIT
  1564 ;;		_Master_INIT
  1565 ;;		_SSD_INIT
  1566 ;;		_Timer_INIT
  1567 ;; This function is called by:
  1568 ;;		Startup code after reset
  1569 ;; This function uses a non-reentrant model
  1570 ;;
  1571                           
  1572                           
  1573                           ;psect for function _main
  1574  0A93                     _main:
  1575  0A93                     l3334:	
  1576                           ;incstack = 0
  1577 ;; hardware stack exceeded
  1578                           ; Regs used in _main: [wreg-fsr0h+status,2+status,0+btemp+1+pclath+cstack]
  1579                           
  1580                           
  1581                           ;main.c: 58:     TRISB &=0b10000111;
  1582  0A93  3087               	movlw	135
  1583  0A94  00FF               	movwf	btemp+1
  1584  0A95  087F               	movf	btemp+1,w
  1585  0A96  1683               	bsf	3,5	;RP0=1, select bank1
  1586  0A97  1303               	bcf	3,6	;RP1=0, select bank1
  1587  0A98  0586               	andwf	6,f	;volatile
  1588  0A99                     l3336:
  1589                           
  1590                           ;main.c: 60:     EX_Interrupt_INIT(ISR_CallBack);
  1591  0A99  3001               	movlw	(low (fp__ISR_CallBack-i1fpbase))& (0+255)
  1592  0A9A  160A  118A  2663  120A  158A  	fcall	_EX_Interrupt_INIT
  1593  0A9F                     l3338:
  1594                           
  1595                           ;main.c: 61:     ADC_INIT();
  1596  0A9F  160A  118A  2706  120A  158A  	fcall	_ADC_INIT
  1597  0AA4                     l3340:
  1598                           
  1599                           ;main.c: 62:     Master_INIT(100000);
  1600  0AA4  3000               	movlw	0
  1601  0AA5  1683               	bsf	3,5	;RP0=1, select bank3
  1602  0AA6  1703               	bsf	3,6	;RP1=1, select bank3
  1603  0AA7  00A1               	movwf	(Master_INIT@I2C_BaudRate+3)^(0+384)
  1604  0AA8  3001               	movlw	1
  1605  0AA9  00A0               	movwf	(Master_INIT@I2C_BaudRate+2)^(0+384)
  1606  0AAA  3086               	movlw	134
  1607  0AAB  009F               	movwf	(Master_INIT@I2C_BaudRate+1)^(0+384)
  1608  0AAC  30A0               	movlw	160
  1609  0AAD  009E               	movwf	Master_INIT@I2C_BaudRate^(0+384)
  1610  0AAE  160A  118A  279A  120A  158A  	fcall	_Master_INIT
  1611  0AB3                     l3342:
  1612                           
  1613                           ;main.c: 63:     Timer_INIT();
  1614  0AB3  160A  118A  2652  120A  158A  	fcall	_Timer_INIT
  1615  0AB8                     l3344:
  1616                           
  1617                           ;main.c: 65:     SSD_INIT();
  1618  0AB8  160A  118A  25C0  120A  158A  	fcall	_SSD_INIT
  1619  0ABD                     l3346:
  1620                           
  1621                           ;main.c: 66:     Buttons_INIT();
  1622  0ABD  160A  118A  25B0  120A  158A  	fcall	_Buttons_INIT
  1623  0AC2                     l3348:
  1624                           
  1625                           ;main.c: 67:     Heating_and_Cooling_INIT();
  1626  0AC2  160A  118A  25E2  120A  158A  	fcall	_Heating_and_Cooling_INIT
  1627  0AC7                     l3350:
  1628                           
  1629                           ;main.c: 68:     EEPROM_Read( 2 , 0xF0 , &Temperature );
  1630  0AC7  30F0               	movlw	240
  1631  0AC8  00FF               	movwf	btemp+1
  1632  0AC9  087F               	movf	btemp+1,w
  1633  0ACA  1683               	bsf	3,5	;RP0=1, select bank3
  1634  0ACB  1703               	bsf	3,6	;RP1=1, select bank3
  1635  0ACC  0091               	movwf	EEPROM_Read@address^(0+384)
  1636  0ACD  30B6               	movlw	(low (_Temperature| (0+256)))& (0+255)
  1637  0ACE  00FF               	movwf	btemp+1
  1638  0ACF  087F               	movf	btemp+1,w
  1639  0AD0  0092               	movwf	EEPROM_Read@Data^(0+384)
  1640  0AD1  3002               	movlw	2
  1641  0AD2  120A  158A  205E  120A  158A  	fcall	_EEPROM_Read
  1642  0AD7                     l3352:
  1643                           
  1644                           ;main.c: 72:     {;main.c: 73:         Heating_and_Cooling( &current_Temp , &Temperature
      +                           );
  1645  0AD7  30B6               	movlw	(low (_Temperature| (0+256)))& (0+255)
  1646  0AD8  00FF               	movwf	btemp+1
  1647  0AD9  087F               	movf	btemp+1,w
  1648  0ADA  1683               	bsf	3,5	;RP0=1, select bank3
  1649  0ADB  1703               	bsf	3,6	;RP1=1, select bank3
  1650  0ADC  00AA               	movwf	Heating_and_Cooling@Temperature^(0+384)
  1651  0ADD  30B2               	movlw	(low (_current_Temp| (0+256)))& (0+255)
  1652  0ADE  120A  158A  2538  120A  158A  	fcall	_Heating_and_Cooling
  1653  0AE3                     l3354:
  1654                           
  1655                           ;main.c: 75:         if(PORTBbits.RB2==0)
  1656  0AE3  1283               	bcf	3,5	;RP0=0, select bank0
  1657  0AE4  1303               	bcf	3,6	;RP1=0, select bank0
  1658  0AE5  1906               	btfsc	6,2	;volatile
  1659  0AE6  2AE8               	goto	u4831
  1660  0AE7  2AE9               	goto	u4830
  1661  0AE8                     u4831:
  1662  0AE8  2AFE               	goto	l68
  1663  0AE9                     u4830:
  1664  0AE9                     l3356:
  1665                           
  1666                           ;main.c: 76:         {;main.c: 77:             _delay((unsigned long)((50)*(4000000/4000
      +                          .0)));
  1667  0AE9  3041               	movlw	65
  1668  0AEA  1683               	bsf	3,5	;RP0=1, select bank3
  1669  0AEB  1703               	bsf	3,6	;RP1=1, select bank3
  1670  0AEC  00B1               	movwf	(??_main^(0+384)+1)
  1671  0AED  30ED               	movlw	237
  1672  0AEE  00B0               	movwf	??_main^(0+384)
  1673  0AEF                     u4897:
  1674  0AEF  0BB0               	decfsz	??_main^(0+384),f
  1675  0AF0  2AEF               	goto	u4897
  1676  0AF1  0BB1               	decfsz	(??_main^(0+384)+1),f
  1677  0AF2  2AEF               	goto	u4897
  1678  0AF3  2AF4               	nop2
  1679  0AF4                     l3358:
  1680                           
  1681                           ;main.c: 78:             if(PORTBbits.RB2==0)
  1682  0AF4  1283               	bcf	3,5	;RP0=0, select bank0
  1683  0AF5  1303               	bcf	3,6	;RP1=0, select bank0
  1684  0AF6  1906               	btfsc	6,2	;volatile
  1685  0AF7  2AF9               	goto	u4841
  1686  0AF8  2AFA               	goto	u4840
  1687  0AF9                     u4841:
  1688  0AF9  2AFE               	goto	l68
  1689  0AFA                     u4840:
  1690  0AFA                     l3360:
  1691                           
  1692                           ;main.c: 79:             {;main.c: 80:                 INT2=1;
  1693  0AFA  1683               	bsf	3,5	;RP0=1, select bank1
  1694  0AFB  1303               	bcf	3,6	;RP1=0, select bank1
  1695  0AFC  01D1               	clrf	_INT2^(0+128)
  1696  0AFD  0AD1               	incf	_INT2^(0+128),f
  1697  0AFE                     l68:	
  1698                           ;main.c: 84:         }
  1699                           
  1700                           
  1701                           ;main.c: 85:         if(PORTBbits.RB1==0)
  1702  0AFE  1283               	bcf	3,5	;RP0=0, select bank0
  1703  0AFF  1886               	btfsc	6,1	;volatile
  1704  0B00  2B02               	goto	u4851
  1705  0B01  2B03               	goto	u4850
  1706  0B02                     u4851:
  1707  0B02  2AD7               	goto	l3352
  1708  0B03                     u4850:
  1709  0B03                     l3362:
  1710                           
  1711                           ;main.c: 86:         {;main.c: 87:             _delay((unsigned long)((50)*(4000000/4000
      +                          .0)));
  1712  0B03  3041               	movlw	65
  1713  0B04  1683               	bsf	3,5	;RP0=1, select bank3
  1714  0B05  1703               	bsf	3,6	;RP1=1, select bank3
  1715  0B06  00B1               	movwf	(??_main^(0+384)+1)
  1716  0B07  30ED               	movlw	237
  1717  0B08  00B0               	movwf	??_main^(0+384)
  1718  0B09                     u4907:
  1719  0B09  0BB0               	decfsz	??_main^(0+384),f
  1720  0B0A  2B09               	goto	u4907
  1721  0B0B  0BB1               	decfsz	(??_main^(0+384)+1),f
  1722  0B0C  2B09               	goto	u4907
  1723  0B0D  2B0E               	nop2
  1724  0B0E                     l3364:
  1725                           
  1726                           ;main.c: 89:           if(PORTBbits.RB1==0)
  1727  0B0E  1283               	bcf	3,5	;RP0=0, select bank0
  1728  0B0F  1303               	bcf	3,6	;RP1=0, select bank0
  1729  0B10  1886               	btfsc	6,1	;volatile
  1730  0B11  2B13               	goto	u4861
  1731  0B12  2B14               	goto	u4860
  1732  0B13                     u4861:
  1733  0B13  2AD7               	goto	l3352
  1734  0B14                     u4860:
  1735  0B14                     l3366:
  1736                           
  1737                           ;main.c: 90:           {;main.c: 91:               INT1=1;
  1738  0B14  1683               	bsf	3,5	;RP0=1, select bank1
  1739  0B15  1303               	bcf	3,6	;RP1=0, select bank1
  1740  0B16  01D2               	clrf	_INT1^(0+128)
  1741  0B17  0AD2               	incf	_INT1^(0+128),f
  1742  0B18  2AD7               	goto	l3352
  1743  0B19  120A  118A  2812   	ljmp	start
  1744  0B1C                     __end_of_main:
  1745                           
  1746                           	psect	text1
  1747  1652                     __ptext1:	
  1748 ;; *************** function _Timer_INIT *****************
  1749 ;; Defined at:
  1750 ;;		line 12 in file "Timer.c"
  1751 ;; Parameters:    Size  Location     Type
  1752 ;;		None
  1753 ;; Auto vars:     Size  Location     Type
  1754 ;;		None
  1755 ;; Return value:  Size  Location     Type
  1756 ;;                  1    wreg      void 
  1757 ;; Registers used:
  1758 ;;		None
  1759 ;; Tracked objects:
  1760 ;;		On entry : 0/0
  1761 ;;		On exit  : 0/0
  1762 ;;		Unchanged: 0/0
  1763 ;; Data sizes:     COMMON   BANK0   BANK1   BANK3   BANK2
  1764 ;;      Params:         0       0       0       0       0
  1765 ;;      Locals:         0       0       0       0       0
  1766 ;;      Temps:          0       0       0       0       0
  1767 ;;      Totals:         0       0       0       0       0
  1768 ;;Total ram usage:        0 bytes
  1769 ;; Hardware stack levels used:    1
  1770 ;; Hardware stack levels required when called:    6
  1771 ;; This function calls:
  1772 ;;		Nothing
  1773 ;; This function is called by:
  1774 ;;		_main
  1775 ;; This function uses a non-reentrant model
  1776 ;;
  1777                           
  1778                           
  1779                           ;psect for function _Timer_INIT
  1780  1652                     _Timer_INIT:
  1781  1652                     l3304:	
  1782                           ;incstack = 0
  1783                           ; Regs used in _Timer_INIT: []
  1784                           
  1785                           
  1786                           ;Timer.c: 14:     TMR1 =( 65536-((0.005*4000000)/4) );
  1787  1652  30EC               	movlw	236
  1788  1653  1283               	bcf	3,5	;RP0=0, select bank0
  1789  1654  1303               	bcf	3,6	;RP1=0, select bank0
  1790  1655  008F               	movwf	15	;volatile
  1791  1656  3078               	movlw	120
  1792  1657  008E               	movwf	14	;volatile
  1793                           
  1794                           ;Timer.c: 15:     TMR1CS = 0;
  1795  1658  1090               	bcf	16,1	;volatile
  1796                           
  1797                           ;Timer.c: 16:     TMR1ON = 1;
  1798  1659  1410               	bsf	16,0	;volatile
  1799                           
  1800                           ;Timer.c: 17:     TMR1IE=1;
  1801  165A  1683               	bsf	3,5	;RP0=1, select bank1
  1802  165B  1303               	bcf	3,6	;RP1=0, select bank1
  1803  165C  140C               	bsf	12,0	;volatile
  1804                           
  1805                           ;Timer.c: 18:     TMR1IF = 0;
  1806  165D  1283               	bcf	3,5	;RP0=0, select bank0
  1807  165E  1303               	bcf	3,6	;RP1=0, select bank0
  1808  165F  100C               	bcf	12,0	;volatile
  1809                           
  1810                           ;Timer.c: 19:     GIE=1;
  1811  1660  178B               	bsf	11,7	;volatile
  1812                           
  1813                           ;Timer.c: 20:     PEIE=1;
  1814  1661  170B               	bsf	11,6	;volatile
  1815  1662                     l171:
  1816  1662  0008               	return
  1817  1663                     __end_of_Timer_INIT:
  1818                           
  1819                           	psect	text2
  1820  15C0                     __ptext2:	
  1821 ;; *************** function _SSD_INIT *****************
  1822 ;; Defined at:
  1823 ;;		line 14 in file "SSD.c"
  1824 ;; Parameters:    Size  Location     Type
  1825 ;;		None
  1826 ;; Auto vars:     Size  Location     Type
  1827 ;;		None
  1828 ;; Return value:  Size  Location     Type
  1829 ;;                  1    wreg      void 
  1830 ;; Registers used:
  1831 ;;		status,2
  1832 ;; Tracked objects:
  1833 ;;		On entry : 0/0
  1834 ;;		On exit  : 0/0
  1835 ;;		Unchanged: 0/0
  1836 ;; Data sizes:     COMMON   BANK0   BANK1   BANK3   BANK2
  1837 ;;      Params:         0       0       0       0       0
  1838 ;;      Locals:         0       0       0       0       0
  1839 ;;      Temps:          0       0       0       0       0
  1840 ;;      Totals:         0       0       0       0       0
  1841 ;;Total ram usage:        0 bytes
  1842 ;; Hardware stack levels used:    1
  1843 ;; Hardware stack levels required when called:    6
  1844 ;; This function calls:
  1845 ;;		Nothing
  1846 ;; This function is called by:
  1847 ;;		_main
  1848 ;; This function uses a non-reentrant model
  1849 ;;
  1850                           
  1851                           
  1852                           ;psect for function _SSD_INIT
  1853  15C0                     _SSD_INIT:
  1854  15C0                     l3306:	
  1855                           ;incstack = 0
  1856                           ; Regs used in _SSD_INIT: [status,2]
  1857                           
  1858                           
  1859                           ;SSD.c: 16:     TRISD=0x00;
  1860  15C0  1683               	bsf	3,5	;RP0=1, select bank1
  1861  15C1  1303               	bcf	3,6	;RP1=0, select bank1
  1862  15C2  0188               	clrf	8	;volatile
  1863  15C3                     l3308:
  1864                           
  1865                           ;SSD.c: 18:     TRISA4=0;
  1866  15C3  1205               	bcf	5,4	;volatile
  1867  15C4                     l3310:
  1868                           
  1869                           ;SSD.c: 19:     TRISA5=0;
  1870  15C4  1285               	bcf	5,5	;volatile
  1871  15C5                     l136:
  1872  15C5  0008               	return
  1873  15C6                     __end_of_SSD_INIT:
  1874                           
  1875                           	psect	text3
  1876  179A                     __ptext3:	
  1877 ;; *************** function _Master_INIT *****************
  1878 ;; Defined at:
  1879 ;;		line 15 in file "I2C.c"
  1880 ;; Parameters:    Size  Location     Type
  1881 ;;  I2C_BaudRate    4   14[BANK3 ] unsigned long 
  1882 ;; Auto vars:     Size  Location     Type
  1883 ;;		None
  1884 ;; Return value:  Size  Location     Type
  1885 ;;                  1    wreg      void 
  1886 ;; Registers used:
  1887 ;;		wreg, status,2, status,0, btemp+1, pclath, cstack
  1888 ;; Tracked objects:
  1889 ;;		On entry : 0/0
  1890 ;;		On exit  : 0/0
  1891 ;;		Unchanged: 0/0
  1892 ;; Data sizes:     COMMON   BANK0   BANK1   BANK3   BANK2
  1893 ;;      Params:         0       0       0       4       0
  1894 ;;      Locals:         0       0       0       0       0
  1895 ;;      Temps:          0       0       0       0       0
  1896 ;;      Totals:         0       0       0       4       0
  1897 ;;Total ram usage:        4 bytes
  1898 ;; Hardware stack levels used:    1
  1899 ;; Hardware stack levels required when called:    7
  1900 ;; This function calls:
  1901 ;;		___lldiv
  1902 ;; This function is called by:
  1903 ;;		_main
  1904 ;; This function uses a non-reentrant model
  1905 ;;
  1906                           
  1907                           
  1908                           ;psect for function _Master_INIT
  1909  179A                     _Master_INIT:
  1910  179A                     l3296:	
  1911                           ;incstack = 0
  1912                           ; Regs used in _Master_INIT: [wreg+status,2+status,0+btemp+1+pclath+cstack]
  1913                           
  1914                           
  1915                           ;I2C.c: 15: void Master_INIT(unsigned long I2C_BaudRate);I2C.c: 16: {;I2C.c: 17:     SSP
      +                          M3=1;
  1916  179A  1283               	bcf	3,5	;RP0=0, select bank0
  1917  179B  1303               	bcf	3,6	;RP1=0, select bank0
  1918  179C  1594               	bsf	20,3	;volatile
  1919                           
  1920                           ;I2C.c: 18:     SSPEN=1;
  1921  179D  1694               	bsf	20,5	;volatile
  1922  179E                     l3298:
  1923                           
  1924                           ;I2C.c: 19:     SSPCON2 = 0x00;
  1925  179E  1683               	bsf	3,5	;RP0=1, select bank1
  1926  179F  1303               	bcf	3,6	;RP1=0, select bank1
  1927  17A0  0191               	clrf	17	;volatile
  1928                           
  1929                           ;I2C.c: 20:     SSPSTAT=0x00;
  1930  17A1  0194               	clrf	20	;volatile
  1931  17A2                     l3300:
  1932                           
  1933                           ;I2C.c: 21:     SSPADD=( (4000000/4)/I2C_BaudRate )-1;
  1934  17A2  1683               	bsf	3,5	;RP0=1, select bank3
  1935  17A3  1703               	bsf	3,6	;RP1=1, select bank3
  1936  17A4  0821               	movf	(Master_INIT@I2C_BaudRate+3)^(0+384),w
  1937  17A5  0093               	movwf	(___lldiv@divisor+3)^(0+384)
  1938  17A6  0820               	movf	(Master_INIT@I2C_BaudRate+2)^(0+384),w
  1939  17A7  0092               	movwf	(___lldiv@divisor+2)^(0+384)
  1940  17A8  081F               	movf	(Master_INIT@I2C_BaudRate+1)^(0+384),w
  1941  17A9  0091               	movwf	(___lldiv@divisor+1)^(0+384)
  1942  17AA  081E               	movf	Master_INIT@I2C_BaudRate^(0+384),w
  1943  17AB  0090               	movwf	___lldiv@divisor^(0+384)
  1944  17AC  3000               	movlw	0
  1945  17AD  0097               	movwf	(___lldiv@dividend+3)^(0+384)
  1946  17AE  300F               	movlw	15
  1947  17AF  0096               	movwf	(___lldiv@dividend+2)^(0+384)
  1948  17B0  3042               	movlw	66
  1949  17B1  0095               	movwf	(___lldiv@dividend+1)^(0+384)
  1950  17B2  3040               	movlw	64
  1951  17B3  0094               	movwf	___lldiv@dividend^(0+384)
  1952  17B4  120A  158A  21B1  160A  118A  	fcall	___lldiv
  1953  17B9  1683               	bsf	3,5	;RP0=1, select bank3
  1954  17BA  1703               	bsf	3,6	;RP1=1, select bank3
  1955  17BB  0810               	movf	?___lldiv^(0+384),w
  1956  17BC  3EFF               	addlw	255
  1957  17BD  1683               	bsf	3,5	;RP0=1, select bank1
  1958  17BE  1303               	bcf	3,6	;RP1=0, select bank1
  1959  17BF  0093               	movwf	19	;volatile
  1960  17C0                     l3302:
  1961                           
  1962                           ;I2C.c: 22:     TRISC3=TRISC4=1;
  1963  17C0  1607               	bsf	7,4	;volatile
  1964  17C1  1A07               	btfsc	7,4	;volatile
  1965  17C2  2FC4               	goto	u4811
  1966  17C3  2FC8               	goto	u4810
  1967  17C4                     u4811:
  1968  17C4  1683               	bsf	3,5	;RP0=1, select bank1
  1969  17C5  1303               	bcf	3,6	;RP1=0, select bank1
  1970  17C6  1587               	bsf	7,3	;volatile
  1971  17C7  2FCB               	goto	u4824
  1972  17C8                     u4810:
  1973  17C8  1683               	bsf	3,5	;RP0=1, select bank1
  1974  17C9  1303               	bcf	3,6	;RP1=0, select bank1
  1975  17CA  1187               	bcf	7,3	;volatile
  1976  17CB                     u4824:
  1977  17CB                     l212:
  1978  17CB  0008               	return
  1979  17CC                     __end_of_Master_INIT:
  1980                           
  1981                           	psect	text4
  1982  09B1                     __ptext4:	
  1983 ;; *************** function ___lldiv *****************
  1984 ;; Defined at:
  1985 ;;		line 5 in file "C:\Program Files\Microchip\xc8\v2.20\pic\sources\c90\common\__lldiv.c"
  1986 ;; Parameters:    Size  Location     Type
  1987 ;;  divisor         4    0[BANK3 ] unsigned long 
  1988 ;;  dividend        4    4[BANK3 ] unsigned long 
  1989 ;; Auto vars:     Size  Location     Type
  1990 ;;  quotient        4    9[BANK3 ] unsigned long 
  1991 ;;  counter         1   13[BANK3 ] unsigned char 
  1992 ;; Return value:  Size  Location     Type
  1993 ;;                  4    0[BANK3 ] unsigned long 
  1994 ;; Registers used:
  1995 ;;		wreg, status,2, status,0, btemp+1
  1996 ;; Tracked objects:
  1997 ;;		On entry : 0/0
  1998 ;;		On exit  : 0/0
  1999 ;;		Unchanged: 0/0
  2000 ;; Data sizes:     COMMON   BANK0   BANK1   BANK3   BANK2
  2001 ;;      Params:         0       0       0       8       0
  2002 ;;      Locals:         0       0       0       5       0
  2003 ;;      Temps:          0       0       0       1       0
  2004 ;;      Totals:         0       0       0      14       0
  2005 ;;Total ram usage:       14 bytes
  2006 ;; Hardware stack levels used:    1
  2007 ;; Hardware stack levels required when called:    6
  2008 ;; This function calls:
  2009 ;;		Nothing
  2010 ;; This function is called by:
  2011 ;;		_Master_INIT
  2012 ;; This function uses a non-reentrant model
  2013 ;;
  2014                           
  2015                           
  2016                           ;psect for function ___lldiv
  2017  09B1                     ___lldiv:
  2018  09B1                     l2674:	
  2019                           ;incstack = 0
  2020                           ; Regs used in ___lldiv: [wreg+status,2+status,0+btemp+1]
  2021                           
  2022  09B1  3000               	movlw	0
  2023  09B2  1683               	bsf	3,5	;RP0=1, select bank3
  2024  09B3  1703               	bsf	3,6	;RP1=1, select bank3
  2025  09B4  009C               	movwf	(___lldiv@quotient+3)^(0+384)
  2026  09B5  3000               	movlw	0
  2027  09B6  009B               	movwf	(___lldiv@quotient+2)^(0+384)
  2028  09B7  3000               	movlw	0
  2029  09B8  009A               	movwf	(___lldiv@quotient+1)^(0+384)
  2030  09B9  3000               	movlw	0
  2031  09BA  0099               	movwf	___lldiv@quotient^(0+384)
  2032  09BB  0813               	movf	(___lldiv@divisor+3)^(0+384),w
  2033  09BC  0412               	iorwf	(___lldiv@divisor+2)^(0+384),w
  2034  09BD  0411               	iorwf	(___lldiv@divisor+1)^(0+384),w
  2035  09BE  0410               	iorwf	___lldiv@divisor^(0+384),w
  2036  09BF  1903               	skipnz
  2037  09C0  29C2               	goto	u3561
  2038  09C1  29C3               	goto	u3560
  2039  09C2                     u3561:
  2040  09C2  2A10               	goto	l2696
  2041  09C3                     u3560:
  2042  09C3                     l2676:
  2043  09C3  019D               	clrf	___lldiv@counter^(0+384)
  2044  09C4  0A9D               	incf	___lldiv@counter^(0+384),f
  2045  09C5  29D3               	goto	l2682
  2046  09C6                     l2678:
  2047  09C6  3001               	movlw	1
  2048  09C7  0098               	movwf	??___lldiv^(0+384)
  2049  09C8                     u3575:
  2050  09C8  1003               	clrc
  2051  09C9  0D90               	rlf	___lldiv@divisor^(0+384),f
  2052  09CA  0D91               	rlf	(___lldiv@divisor+1)^(0+384),f
  2053  09CB  0D92               	rlf	(___lldiv@divisor+2)^(0+384),f
  2054  09CC  0D93               	rlf	(___lldiv@divisor+3)^(0+384),f
  2055  09CD  0B98               	decfsz	??___lldiv^(0+384),f
  2056  09CE  29C8               	goto	u3575
  2057  09CF                     l2680:
  2058  09CF  3001               	movlw	1
  2059  09D0  00FF               	movwf	btemp+1
  2060  09D1  087F               	movf	btemp+1,w
  2061  09D2  079D               	addwf	___lldiv@counter^(0+384),f
  2062  09D3                     l2682:
  2063  09D3  1F93               	btfss	(___lldiv@divisor+3)^(0+384),7
  2064  09D4  29D6               	goto	u3581
  2065  09D5  29D7               	goto	u3580
  2066  09D6                     u3581:
  2067  09D6  29C6               	goto	l2678
  2068  09D7                     u3580:
  2069  09D7                     l2684:
  2070  09D7  3001               	movlw	1
  2071  09D8  0098               	movwf	??___lldiv^(0+384)
  2072  09D9                     u3595:
  2073  09D9  1003               	clrc
  2074  09DA  0D99               	rlf	___lldiv@quotient^(0+384),f
  2075  09DB  0D9A               	rlf	(___lldiv@quotient+1)^(0+384),f
  2076  09DC  0D9B               	rlf	(___lldiv@quotient+2)^(0+384),f
  2077  09DD  0D9C               	rlf	(___lldiv@quotient+3)^(0+384),f
  2078  09DE  0B98               	decfsz	??___lldiv^(0+384),f
  2079  09DF  29D9               	goto	u3595
  2080  09E0                     l2686:
  2081  09E0  0813               	movf	(___lldiv@divisor+3)^(0+384),w
  2082  09E1  0217               	subwf	(___lldiv@dividend+3)^(0+384),w
  2083  09E2  1D03               	skipz
  2084  09E3  29EE               	goto	u3605
  2085  09E4  0812               	movf	(___lldiv@divisor+2)^(0+384),w
  2086  09E5  0216               	subwf	(___lldiv@dividend+2)^(0+384),w
  2087  09E6  1D03               	skipz
  2088  09E7  29EE               	goto	u3605
  2089  09E8  0811               	movf	(___lldiv@divisor+1)^(0+384),w
  2090  09E9  0215               	subwf	(___lldiv@dividend+1)^(0+384),w
  2091  09EA  1D03               	skipz
  2092  09EB  29EE               	goto	u3605
  2093  09EC  0810               	movf	___lldiv@divisor^(0+384),w
  2094  09ED  0214               	subwf	___lldiv@dividend^(0+384),w
  2095  09EE                     u3605:
  2096  09EE  1C03               	skipc
  2097  09EF  29F1               	goto	u3601
  2098  09F0  29F2               	goto	u3600
  2099  09F1                     u3601:
  2100  09F1  2A01               	goto	l2692
  2101  09F2                     u3600:
  2102  09F2                     l2688:
  2103  09F2  0810               	movf	___lldiv@divisor^(0+384),w
  2104  09F3  0294               	subwf	___lldiv@dividend^(0+384),f
  2105  09F4  0811               	movf	(___lldiv@divisor+1)^(0+384),w
  2106  09F5  1C03               	skipc
  2107  09F6  0F11               	incfsz	(___lldiv@divisor+1)^(0+384),w
  2108  09F7  0295               	subwf	(___lldiv@dividend+1)^(0+384),f
  2109  09F8  0812               	movf	(___lldiv@divisor+2)^(0+384),w
  2110  09F9  1C03               	skipc
  2111  09FA  0F12               	incfsz	(___lldiv@divisor+2)^(0+384),w
  2112  09FB  0296               	subwf	(___lldiv@dividend+2)^(0+384),f
  2113  09FC  0813               	movf	(___lldiv@divisor+3)^(0+384),w
  2114  09FD  1C03               	skipc
  2115  09FE  0F13               	incfsz	(___lldiv@divisor+3)^(0+384),w
  2116  09FF  0297               	subwf	(___lldiv@dividend+3)^(0+384),f
  2117  0A00                     l2690:
  2118  0A00  1419               	bsf	___lldiv@quotient^(0+384),0
  2119  0A01                     l2692:
  2120  0A01  3001               	movlw	1
  2121  0A02                     u3615:
  2122  0A02  1003               	clrc
  2123  0A03  0C93               	rrf	(___lldiv@divisor+3)^(0+384),f
  2124  0A04  0C92               	rrf	(___lldiv@divisor+2)^(0+384),f
  2125  0A05  0C91               	rrf	(___lldiv@divisor+1)^(0+384),f
  2126  0A06  0C90               	rrf	___lldiv@divisor^(0+384),f
  2127  0A07  3EFF               	addlw	-1
  2128  0A08  1D03               	skipz
  2129  0A09  2A02               	goto	u3615
  2130  0A0A                     l2694:
  2131  0A0A  3001               	movlw	1
  2132  0A0B  029D               	subwf	___lldiv@counter^(0+384),f
  2133  0A0C  1D03               	btfss	3,2
  2134  0A0D  2A0F               	goto	u3621
  2135  0A0E  2A10               	goto	u3620
  2136  0A0F                     u3621:
  2137  0A0F  29D7               	goto	l2684
  2138  0A10                     u3620:
  2139  0A10                     l2696:
  2140  0A10  081C               	movf	(___lldiv@quotient+3)^(0+384),w
  2141  0A11  0093               	movwf	(?___lldiv+3)^(0+384)
  2142  0A12  081B               	movf	(___lldiv@quotient+2)^(0+384),w
  2143  0A13  0092               	movwf	(?___lldiv+2)^(0+384)
  2144  0A14  081A               	movf	(___lldiv@quotient+1)^(0+384),w
  2145  0A15  0091               	movwf	(?___lldiv+1)^(0+384)
  2146  0A16  0819               	movf	___lldiv@quotient^(0+384),w
  2147  0A17  0090               	movwf	?___lldiv^(0+384)
  2148  0A18                     l490:
  2149  0A18  0008               	return
  2150  0A19                     __end_of___lldiv:
  2151                           
  2152                           	psect	text5
  2153  15E2                     __ptext5:	
  2154 ;; *************** function _Heating_and_Cooling_INIT *****************
  2155 ;; Defined at:
  2156 ;;		line 13 in file "HEATER_AND_COOLER.c"
  2157 ;; Parameters:    Size  Location     Type
  2158 ;;		None
  2159 ;; Auto vars:     Size  Location     Type
  2160 ;;		None
  2161 ;; Return value:  Size  Location     Type
  2162 ;;                  1    wreg      void 
  2163 ;; Registers used:
  2164 ;;		None
  2165 ;; Tracked objects:
  2166 ;;		On entry : 0/0
  2167 ;;		On exit  : 0/0
  2168 ;;		Unchanged: 0/0
  2169 ;; Data sizes:     COMMON   BANK0   BANK1   BANK3   BANK2
  2170 ;;      Params:         0       0       0       0       0
  2171 ;;      Locals:         0       0       0       0       0
  2172 ;;      Temps:          0       0       0       0       0
  2173 ;;      Totals:         0       0       0       0       0
  2174 ;;Total ram usage:        0 bytes
  2175 ;; Hardware stack levels used:    1
  2176 ;; Hardware stack levels required when called:    6
  2177 ;; This function calls:
  2178 ;;		Nothing
  2179 ;; This function is called by:
  2180 ;;		_main
  2181 ;; This function uses a non-reentrant model
  2182 ;;
  2183                           
  2184                           
  2185                           ;psect for function _Heating_and_Cooling_INIT
  2186  15E2                     _Heating_and_Cooling_INIT:
  2187  15E2                     l3314:	
  2188                           ;incstack = 0
  2189                           ; Regs used in _Heating_and_Cooling_INIT: []
  2190                           
  2191                           
  2192                           ;HEATER_AND_COOLER.c: 15:     TRISB7=0;
  2193  15E2  1683               	bsf	3,5	;RP0=1, select bank1
  2194  15E3  1303               	bcf	3,6	;RP1=0, select bank1
  2195  15E4  1386               	bcf	6,7	;volatile
  2196                           
  2197                           ;HEATER_AND_COOLER.c: 16:     RB7=0;
  2198  15E5  1283               	bcf	3,5	;RP0=0, select bank0
  2199  15E6  1303               	bcf	3,6	;RP1=0, select bank0
  2200  15E7  1386               	bcf	6,7	;volatile
  2201                           
  2202                           ;HEATER_AND_COOLER.c: 17:     TRISC5=TRISC2=0;
  2203  15E8  1683               	bsf	3,5	;RP0=1, select bank1
  2204  15E9  1303               	bcf	3,6	;RP1=0, select bank1
  2205  15EA  1107               	bcf	7,2	;volatile
  2206  15EB  1287               	bcf	7,5	;volatile
  2207  15EC                     l333:
  2208  15EC  0008               	return
  2209  15ED                     __end_of_Heating_and_Cooling_INIT:
  2210                           
  2211                           	psect	text6
  2212  0D38                     __ptext6:	
  2213 ;; *************** function _Heating_and_Cooling *****************
  2214 ;; Defined at:
  2215 ;;		line 26 in file "HEATER_AND_COOLER.c"
  2216 ;; Parameters:    Size  Location     Type
  2217 ;;  current_Temp    1    wreg     PTR float 
  2218 ;;		 -> current_Temp(4), 
  2219 ;;  Temperature     1   26[BANK3 ] PTR unsigned char 
  2220 ;;		 -> Temperature(1), 
  2221 ;; Auto vars:     Size  Location     Type
  2222 ;;  current_Temp    1   31[BANK3 ] PTR float 
  2223 ;;		 -> current_Temp(4), 
  2224 ;; Return value:  Size  Location     Type
  2225 ;;                  1    wreg      void 
  2226 ;; Registers used:
  2227 ;;		wreg, fsr0l, fsr0h, status,2, status,0, btemp+1, pclath, cstack
  2228 ;; Tracked objects:
  2229 ;;		On entry : 0/0
  2230 ;;		On exit  : 0/0
  2231 ;;		Unchanged: 0/0
  2232 ;; Data sizes:     COMMON   BANK0   BANK1   BANK3   BANK2
  2233 ;;      Params:         0       0       0       1       0
  2234 ;;      Locals:         0       0       0       1       0
  2235 ;;      Temps:          0       0       0       4       0
  2236 ;;      Totals:         0       0       0       6       0
  2237 ;;Total ram usage:        6 bytes
  2238 ;; Hardware stack levels used:    1
  2239 ;; Hardware stack levels required when called:    7
  2240 ;; This function calls:
  2241 ;;		___flge
  2242 ;;		___xxtofl
  2243 ;; This function is called by:
  2244 ;;		_main
  2245 ;; This function uses a non-reentrant model
  2246 ;;
  2247                           
  2248                           
  2249                           ;psect for function _Heating_and_Cooling
  2250  0D38                     _Heating_and_Cooling:
  2251                           
  2252                           ;incstack = 0
  2253                           ; Regs used in _Heating_and_Cooling: [wreg-fsr0h+status,2+status,0+btemp+1+pclath+cstack
      +                          ]
  2254                           ;Heating_and_Cooling@current_Temp stored from wreg
  2255  0D38  1683               	bsf	3,5	;RP0=1, select bank3
  2256  0D39  1703               	bsf	3,6	;RP1=1, select bank3
  2257  0D3A  00AF               	movwf	Heating_and_Cooling@current_Temp^(0+384)
  2258  0D3B                     l3044:
  2259                           
  2260                           ;HEATER_AND_COOLER.c: 26: void Heating_and_Cooling(float * current_Temp , unsigned char 
      +                          * Temperature);HEATER_AND_COOLER.c: 27: {;HEATER_AND_COOLER.c: 28:     if(*current_Temp 
      +                          > *Temperature)
  2261  0D3B  082A               	movf	Heating_and_Cooling@Temperature^(0+384),w
  2262  0D3C  0084               	movwf	4
  2263  0D3D  1783               	bsf	3,7	;select IRP bank2
  2264  0D3E  0800               	movf	0,w
  2265  0D3F  00AB               	movwf	??_Heating_and_Cooling^(0+384)
  2266  0D40  01AC               	clrf	(??_Heating_and_Cooling^(0+384)+1)
  2267  0D41  01AD               	clrf	(??_Heating_and_Cooling^(0+384)+2)
  2268  0D42  01AE               	clrf	(??_Heating_and_Cooling^(0+384)+3)
  2269  0D43  082E               	movf	(??_Heating_and_Cooling+3)^(0+384),w
  2270  0D44  0093               	movwf	(___xxtofl@val+3)^(0+384)
  2271  0D45  082D               	movf	(??_Heating_and_Cooling+2)^(0+384),w
  2272  0D46  0092               	movwf	(___xxtofl@val+2)^(0+384)
  2273  0D47  082C               	movf	(??_Heating_and_Cooling+1)^(0+384),w
  2274  0D48  0091               	movwf	(___xxtofl@val+1)^(0+384)
  2275  0D49  082B               	movf	??_Heating_and_Cooling^(0+384),w
  2276  0D4A  0090               	movwf	___xxtofl@val^(0+384)
  2277  0D4B  3001               	movlw	1
  2278  0D4C  120A  158A  247C  120A  158A  	fcall	___xxtofl
  2279  0D51  1683               	bsf	3,5	;RP0=1, select bank3
  2280  0D52  1703               	bsf	3,6	;RP1=1, select bank3
  2281  0D53  0813               	movf	(?___xxtofl+3)^(0+384),w
  2282  0D54  00A1               	movwf	(___flge@ff1+3)^(0+384)
  2283  0D55  0812               	movf	(?___xxtofl+2)^(0+384),w
  2284  0D56  00A0               	movwf	(___flge@ff1+2)^(0+384)
  2285  0D57  0811               	movf	(?___xxtofl+1)^(0+384),w
  2286  0D58  009F               	movwf	(___flge@ff1+1)^(0+384)
  2287  0D59  0810               	movf	?___xxtofl^(0+384),w
  2288  0D5A  009E               	movwf	___flge@ff1^(0+384)
  2289  0D5B  082F               	movf	Heating_and_Cooling@current_Temp^(0+384),w
  2290  0D5C  0084               	movwf	4
  2291  0D5D  1783               	bsf	3,7	;select IRP bank2
  2292  0D5E  0800               	movf	0,w
  2293  0D5F  00A2               	movwf	___flge@ff2^(0+384)
  2294  0D60  0A84               	incf	4,f
  2295  0D61  0800               	movf	0,w
  2296  0D62  00A3               	movwf	(___flge@ff2+1)^(0+384)
  2297  0D63  0A84               	incf	4,f
  2298  0D64  0800               	movf	0,w
  2299  0D65  00A4               	movwf	(___flge@ff2+2)^(0+384)
  2300  0D66  0A84               	incf	4,f
  2301  0D67  0800               	movf	0,w
  2302  0D68  00A5               	movwf	(___flge@ff2+3)^(0+384)
  2303  0D69  120A  158A  231C  120A  158A  	fcall	___flge
  2304  0D6E  1803               	btfsc	3,0
  2305  0D6F  2D71               	goto	u4441
  2306  0D70  2D72               	goto	u4440
  2307  0D71                     u4441:
  2308  0D71  2DAF               	goto	l3050
  2309  0D72                     u4440:
  2310  0D72                     l3046:
  2311                           
  2312                           ;HEATER_AND_COOLER.c: 29:     {;HEATER_AND_COOLER.c: 30:         if( *current_Temp > *(T
      +                          emperature)+5 )
  2313  0D72  1683               	bsf	3,5	;RP0=1, select bank3
  2314  0D73  1703               	bsf	3,6	;RP1=1, select bank3
  2315  0D74  082A               	movf	Heating_and_Cooling@Temperature^(0+384),w
  2316  0D75  0084               	movwf	4
  2317  0D76  1783               	bsf	3,7	;select IRP bank2
  2318  0D77  0800               	movf	0,w
  2319  0D78  3E05               	addlw	5
  2320  0D79  0090               	movwf	___xxtofl@val^(0+384)
  2321  0D7A  3000               	movlw	0
  2322  0D7B  1803               	skipnc
  2323  0D7C  3001               	movlw	1
  2324  0D7D  0091               	movwf	(___xxtofl@val^(0+384)+1)
  2325  0D7E  0192               	clrf	(___xxtofl@val^(0+384)+2)
  2326  0D7F  1B91               	btfsc	(___xxtofl@val^(0+384)+1),7
  2327  0D80  0392               	decf	(___xxtofl@val+2)^(0+384),f
  2328  0D81  0812               	movf	(___xxtofl@val^(0+384)+2),w
  2329  0D82  0093               	movwf	(___xxtofl@val+3)^(0+384)
  2330  0D83  3001               	movlw	1
  2331  0D84  120A  158A  247C  120A  158A  	fcall	___xxtofl
  2332  0D89  1683               	bsf	3,5	;RP0=1, select bank3
  2333  0D8A  1703               	bsf	3,6	;RP1=1, select bank3
  2334  0D8B  0813               	movf	(?___xxtofl+3)^(0+384),w
  2335  0D8C  00A1               	movwf	(___flge@ff1+3)^(0+384)
  2336  0D8D  0812               	movf	(?___xxtofl+2)^(0+384),w
  2337  0D8E  00A0               	movwf	(___flge@ff1+2)^(0+384)
  2338  0D8F  0811               	movf	(?___xxtofl+1)^(0+384),w
  2339  0D90  009F               	movwf	(___flge@ff1+1)^(0+384)
  2340  0D91  0810               	movf	?___xxtofl^(0+384),w
  2341  0D92  009E               	movwf	___flge@ff1^(0+384)
  2342  0D93  082F               	movf	Heating_and_Cooling@current_Temp^(0+384),w
  2343  0D94  0084               	movwf	4
  2344  0D95  1783               	bsf	3,7	;select IRP bank2
  2345  0D96  0800               	movf	0,w
  2346  0D97  00A2               	movwf	___flge@ff2^(0+384)
  2347  0D98  0A84               	incf	4,f
  2348  0D99  0800               	movf	0,w
  2349  0D9A  00A3               	movwf	(___flge@ff2+1)^(0+384)
  2350  0D9B  0A84               	incf	4,f
  2351  0D9C  0800               	movf	0,w
  2352  0D9D  00A4               	movwf	(___flge@ff2+2)^(0+384)
  2353  0D9E  0A84               	incf	4,f
  2354  0D9F  0800               	movf	0,w
  2355  0DA0  00A5               	movwf	(___flge@ff2+3)^(0+384)
  2356  0DA1  120A  158A  231C  120A  158A  	fcall	___flge
  2357  0DA6  1803               	btfsc	3,0
  2358  0DA7  2DA9               	goto	u4451
  2359  0DA8  2DAA               	goto	u4450
  2360  0DA9                     u4451:
  2361  0DA9  2DAF               	goto	l3050
  2362  0DAA                     u4450:
  2363  0DAA                     l3048:
  2364                           
  2365                           ;HEATER_AND_COOLER.c: 31:         {;HEATER_AND_COOLER.c: 32:         RC5=0;
  2366  0DAA  1283               	bcf	3,5	;RP0=0, select bank0
  2367  0DAB  1303               	bcf	3,6	;RP1=0, select bank0
  2368  0DAC  1287               	bcf	7,5	;volatile
  2369                           
  2370                           ;HEATER_AND_COOLER.c: 33:         RC2=1;
  2371  0DAD  1507               	bsf	7,2	;volatile
  2372                           
  2373                           ;HEATER_AND_COOLER.c: 34:         RB7=1;
  2374  0DAE  1786               	bsf	6,7	;volatile
  2375  0DAF                     l3050:
  2376                           
  2377                           ;HEATER_AND_COOLER.c: 38:     if(*current_Temp < *Temperature)
  2378  0DAF  1683               	bsf	3,5	;RP0=1, select bank3
  2379  0DB0  1703               	bsf	3,6	;RP1=1, select bank3
  2380  0DB1  082F               	movf	Heating_and_Cooling@current_Temp^(0+384),w
  2381  0DB2  0084               	movwf	4
  2382  0DB3  1783               	bsf	3,7	;select IRP bank2
  2383  0DB4  0800               	movf	0,w
  2384  0DB5  009E               	movwf	___flge@ff1^(0+384)
  2385  0DB6  0A84               	incf	4,f
  2386  0DB7  0800               	movf	0,w
  2387  0DB8  009F               	movwf	(___flge@ff1+1)^(0+384)
  2388  0DB9  0A84               	incf	4,f
  2389  0DBA  0800               	movf	0,w
  2390  0DBB  00A0               	movwf	(___flge@ff1+2)^(0+384)
  2391  0DBC  0A84               	incf	4,f
  2392  0DBD  0800               	movf	0,w
  2393  0DBE  00A1               	movwf	(___flge@ff1+3)^(0+384)
  2394  0DBF  082A               	movf	Heating_and_Cooling@Temperature^(0+384),w
  2395  0DC0  0084               	movwf	4
  2396  0DC1  0800               	movf	0,w
  2397  0DC2  00AB               	movwf	??_Heating_and_Cooling^(0+384)
  2398  0DC3  01AC               	clrf	(??_Heating_and_Cooling^(0+384)+1)
  2399  0DC4  01AD               	clrf	(??_Heating_and_Cooling^(0+384)+2)
  2400  0DC5  01AE               	clrf	(??_Heating_and_Cooling^(0+384)+3)
  2401  0DC6  082E               	movf	(??_Heating_and_Cooling+3)^(0+384),w
  2402  0DC7  0093               	movwf	(___xxtofl@val+3)^(0+384)
  2403  0DC8  082D               	movf	(??_Heating_and_Cooling+2)^(0+384),w
  2404  0DC9  0092               	movwf	(___xxtofl@val+2)^(0+384)
  2405  0DCA  082C               	movf	(??_Heating_and_Cooling+1)^(0+384),w
  2406  0DCB  0091               	movwf	(___xxtofl@val+1)^(0+384)
  2407  0DCC  082B               	movf	??_Heating_and_Cooling^(0+384),w
  2408  0DCD  0090               	movwf	___xxtofl@val^(0+384)
  2409  0DCE  3001               	movlw	1
  2410  0DCF  120A  158A  247C  120A  158A  	fcall	___xxtofl
  2411  0DD4  1683               	bsf	3,5	;RP0=1, select bank3
  2412  0DD5  1703               	bsf	3,6	;RP1=1, select bank3
  2413  0DD6  0813               	movf	(?___xxtofl+3)^(0+384),w
  2414  0DD7  00A5               	movwf	(___flge@ff2+3)^(0+384)
  2415  0DD8  0812               	movf	(?___xxtofl+2)^(0+384),w
  2416  0DD9  00A4               	movwf	(___flge@ff2+2)^(0+384)
  2417  0DDA  0811               	movf	(?___xxtofl+1)^(0+384),w
  2418  0DDB  00A3               	movwf	(___flge@ff2+1)^(0+384)
  2419  0DDC  0810               	movf	?___xxtofl^(0+384),w
  2420  0DDD  00A2               	movwf	___flge@ff2^(0+384)
  2421  0DDE  120A  158A  231C  120A  158A  	fcall	___flge
  2422  0DE3  1803               	btfsc	3,0
  2423  0DE4  2DE6               	goto	u4461
  2424  0DE5  2DE7               	goto	u4460
  2425  0DE6                     u4461:
  2426  0DE6  2E22               	goto	l343
  2427  0DE7                     u4460:
  2428  0DE7                     l3052:
  2429                           
  2430                           ;HEATER_AND_COOLER.c: 39:     {;HEATER_AND_COOLER.c: 40:         if( *current_Temp < *(T
      +                          emperature)+5)
  2431  0DE7  1683               	bsf	3,5	;RP0=1, select bank3
  2432  0DE8  1703               	bsf	3,6	;RP1=1, select bank3
  2433  0DE9  082F               	movf	Heating_and_Cooling@current_Temp^(0+384),w
  2434  0DEA  0084               	movwf	4
  2435  0DEB  1783               	bsf	3,7	;select IRP bank2
  2436  0DEC  0800               	movf	0,w
  2437  0DED  009E               	movwf	___flge@ff1^(0+384)
  2438  0DEE  0A84               	incf	4,f
  2439  0DEF  0800               	movf	0,w
  2440  0DF0  009F               	movwf	(___flge@ff1+1)^(0+384)
  2441  0DF1  0A84               	incf	4,f
  2442  0DF2  0800               	movf	0,w
  2443  0DF3  00A0               	movwf	(___flge@ff1+2)^(0+384)
  2444  0DF4  0A84               	incf	4,f
  2445  0DF5  0800               	movf	0,w
  2446  0DF6  00A1               	movwf	(___flge@ff1+3)^(0+384)
  2447  0DF7  082A               	movf	Heating_and_Cooling@Temperature^(0+384),w
  2448  0DF8  0084               	movwf	4
  2449  0DF9  0800               	movf	0,w
  2450  0DFA  3E05               	addlw	5
  2451  0DFB  0090               	movwf	___xxtofl@val^(0+384)
  2452  0DFC  3000               	movlw	0
  2453  0DFD  1803               	skipnc
  2454  0DFE  3001               	movlw	1
  2455  0DFF  0091               	movwf	(___xxtofl@val^(0+384)+1)
  2456  0E00  0192               	clrf	(___xxtofl@val^(0+384)+2)
  2457  0E01  1B91               	btfsc	(___xxtofl@val^(0+384)+1),7
  2458  0E02  0392               	decf	(___xxtofl@val+2)^(0+384),f
  2459  0E03  0812               	movf	(___xxtofl@val^(0+384)+2),w
  2460  0E04  0093               	movwf	(___xxtofl@val+3)^(0+384)
  2461  0E05  3001               	movlw	1
  2462  0E06  120A  158A  247C  120A  158A  	fcall	___xxtofl
  2463  0E0B  1683               	bsf	3,5	;RP0=1, select bank3
  2464  0E0C  1703               	bsf	3,6	;RP1=1, select bank3
  2465  0E0D  0813               	movf	(?___xxtofl+3)^(0+384),w
  2466  0E0E  00A5               	movwf	(___flge@ff2+3)^(0+384)
  2467  0E0F  0812               	movf	(?___xxtofl+2)^(0+384),w
  2468  0E10  00A4               	movwf	(___flge@ff2+2)^(0+384)
  2469  0E11  0811               	movf	(?___xxtofl+1)^(0+384),w
  2470  0E12  00A3               	movwf	(___flge@ff2+1)^(0+384)
  2471  0E13  0810               	movf	?___xxtofl^(0+384),w
  2472  0E14  00A2               	movwf	___flge@ff2^(0+384)
  2473  0E15  120A  158A  231C  120A  158A  	fcall	___flge
  2474  0E1A  1803               	btfsc	3,0
  2475  0E1B  2E1D               	goto	u4471
  2476  0E1C  2E1E               	goto	u4470
  2477  0E1D                     u4471:
  2478  0E1D  2E22               	goto	l343
  2479  0E1E                     u4470:
  2480  0E1E                     l3054:
  2481                           
  2482                           ;HEATER_AND_COOLER.c: 41:        {;HEATER_AND_COOLER.c: 42:         RC5=1;
  2483  0E1E  1283               	bcf	3,5	;RP0=0, select bank0
  2484  0E1F  1303               	bcf	3,6	;RP1=0, select bank0
  2485  0E20  1687               	bsf	7,5	;volatile
  2486                           
  2487                           ;HEATER_AND_COOLER.c: 43:         RC2=0;
  2488  0E21  1107               	bcf	7,2	;volatile
  2489  0E22                     l343:
  2490  0E22  0008               	return
  2491  0E23                     __end_of_Heating_and_Cooling:
  2492                           
  2493                           	psect	text7
  2494  0C7C                     __ptext7:	
  2495 ;; *************** function ___xxtofl *****************
  2496 ;; Defined at:
  2497 ;;		line 10 in file "C:\Program Files\Microchip\xc8\v2.20\pic\sources\c90\common\xxtofl.c"
  2498 ;; Parameters:    Size  Location     Type
  2499 ;;  sign            1    wreg     unsigned char 
  2500 ;;  val             4    0[BANK3 ] long 
  2501 ;; Auto vars:     Size  Location     Type
  2502 ;;  sign            1    8[BANK3 ] unsigned char 
  2503 ;;  arg             4   10[BANK3 ] unsigned long 
  2504 ;;  exp             1    9[BANK3 ] unsigned char 
  2505 ;; Return value:  Size  Location     Type
  2506 ;;                  4    0[BANK3 ] unsigned char 
  2507 ;; Registers used:
  2508 ;;		wreg, status,2, status,0, btemp+1
  2509 ;; Tracked objects:
  2510 ;;		On entry : 0/0
  2511 ;;		On exit  : 0/0
  2512 ;;		Unchanged: 0/0
  2513 ;; Data sizes:     COMMON   BANK0   BANK1   BANK3   BANK2
  2514 ;;      Params:         0       0       0       4       0
  2515 ;;      Locals:         0       0       0       6       0
  2516 ;;      Temps:          0       0       0       4       0
  2517 ;;      Totals:         0       0       0      14       0
  2518 ;;Total ram usage:       14 bytes
  2519 ;; Hardware stack levels used:    1
  2520 ;; Hardware stack levels required when called:    6
  2521 ;; This function calls:
  2522 ;;		Nothing
  2523 ;; This function is called by:
  2524 ;;		_Heating_and_Cooling
  2525 ;; This function uses a non-reentrant model
  2526 ;;
  2527                           
  2528                           
  2529                           ;psect for function ___xxtofl
  2530  0C7C                     ___xxtofl:
  2531                           
  2532                           ;incstack = 0
  2533                           ; Regs used in ___xxtofl: [wreg+status,2+status,0+btemp+1]
  2534                           ;___xxtofl@sign stored from wreg
  2535  0C7C  1683               	bsf	3,5	;RP0=1, select bank3
  2536  0C7D  1703               	bsf	3,6	;RP1=1, select bank3
  2537  0C7E  0098               	movwf	___xxtofl@sign^(0+384)
  2538  0C7F                     l2960:
  2539  0C7F  0818               	movf	___xxtofl@sign^(0+384),w
  2540  0C80  1903               	btfsc	3,2
  2541  0C81  2C83               	goto	u4261
  2542  0C82  2C84               	goto	u4260
  2543  0C83                     u4261:
  2544  0C83  2C98               	goto	l2966
  2545  0C84                     u4260:
  2546  0C84                     l2962:
  2547  0C84  1F93               	btfss	(___xxtofl@val+3)^(0+384),7
  2548  0C85  2C87               	goto	u4271
  2549  0C86  2C88               	goto	u4270
  2550  0C87                     u4271:
  2551  0C87  2C98               	goto	l2966
  2552  0C88                     u4270:
  2553  0C88                     l2964:
  2554  0C88  0910               	comf	___xxtofl@val^(0+384),w
  2555  0C89  009A               	movwf	___xxtofl@arg^(0+384)
  2556  0C8A  0911               	comf	(___xxtofl@val^(0+384)+1),w
  2557  0C8B  009B               	movwf	(___xxtofl@arg+1)^(0+384)
  2558  0C8C  0912               	comf	(___xxtofl@val^(0+384)+2),w
  2559  0C8D  009C               	movwf	(___xxtofl@arg+2)^(0+384)
  2560  0C8E  0913               	comf	(___xxtofl@val^(0+384)+3),w
  2561  0C8F  009D               	movwf	(___xxtofl@arg+3)^(0+384)
  2562  0C90  0A9A               	incf	___xxtofl@arg^(0+384),f
  2563  0C91  1903               	skipnz
  2564  0C92  0A9B               	incf	(___xxtofl@arg+1)^(0+384),f
  2565  0C93  1903               	skipnz
  2566  0C94  0A9C               	incf	(___xxtofl@arg+2)^(0+384),f
  2567  0C95  1903               	skipnz
  2568  0C96  0A9D               	incf	(___xxtofl@arg+3)^(0+384),f
  2569  0C97  2CA0               	goto	l887
  2570  0C98                     l2966:
  2571  0C98  0813               	movf	(___xxtofl@val+3)^(0+384),w
  2572  0C99  009D               	movwf	(___xxtofl@arg+3)^(0+384)
  2573  0C9A  0812               	movf	(___xxtofl@val+2)^(0+384),w
  2574  0C9B  009C               	movwf	(___xxtofl@arg+2)^(0+384)
  2575  0C9C  0811               	movf	(___xxtofl@val+1)^(0+384),w
  2576  0C9D  009B               	movwf	(___xxtofl@arg+1)^(0+384)
  2577  0C9E  0810               	movf	___xxtofl@val^(0+384),w
  2578  0C9F  009A               	movwf	___xxtofl@arg^(0+384)
  2579  0CA0                     l887:
  2580  0CA0  0813               	movf	(___xxtofl@val+3)^(0+384),w
  2581  0CA1  0412               	iorwf	(___xxtofl@val+2)^(0+384),w
  2582  0CA2  0411               	iorwf	(___xxtofl@val+1)^(0+384),w
  2583  0CA3  0410               	iorwf	___xxtofl@val^(0+384),w
  2584  0CA4  1D03               	skipz
  2585  0CA5  2CA7               	goto	u4281
  2586  0CA6  2CA8               	goto	u4280
  2587  0CA7                     u4281:
  2588  0CA7  2CB1               	goto	l2972
  2589  0CA8                     u4280:
  2590  0CA8                     l2968:
  2591  0CA8  3000               	movlw	0
  2592  0CA9  0093               	movwf	(?___xxtofl+3)^(0+384)
  2593  0CAA  3000               	movlw	0
  2594  0CAB  0092               	movwf	(?___xxtofl+2)^(0+384)
  2595  0CAC  3000               	movlw	0
  2596  0CAD  0091               	movwf	(?___xxtofl+1)^(0+384)
  2597  0CAE  3000               	movlw	0
  2598  0CAF  0090               	movwf	?___xxtofl^(0+384)
  2599  0CB0  2D37               	goto	l889
  2600  0CB1                     l2972:
  2601  0CB1  3096               	movlw	150
  2602  0CB2  00FF               	movwf	btemp+1
  2603  0CB3  087F               	movf	btemp+1,w
  2604  0CB4  0099               	movwf	___xxtofl@exp^(0+384)
  2605  0CB5  2CC3               	goto	l2978
  2606  0CB6                     l2974:
  2607  0CB6  3001               	movlw	1
  2608  0CB7  00FF               	movwf	btemp+1
  2609  0CB8  087F               	movf	btemp+1,w
  2610  0CB9  0799               	addwf	___xxtofl@exp^(0+384),f
  2611  0CBA                     l2976:
  2612  0CBA  3001               	movlw	1
  2613  0CBB                     u4295:
  2614  0CBB  1003               	clrc
  2615  0CBC  0C9D               	rrf	(___xxtofl@arg+3)^(0+384),f
  2616  0CBD  0C9C               	rrf	(___xxtofl@arg+2)^(0+384),f
  2617  0CBE  0C9B               	rrf	(___xxtofl@arg+1)^(0+384),f
  2618  0CBF  0C9A               	rrf	___xxtofl@arg^(0+384),f
  2619  0CC0  3EFF               	addlw	-1
  2620  0CC1  1D03               	skipz
  2621  0CC2  2CBB               	goto	u4295
  2622  0CC3                     l2978:
  2623  0CC3  30FE               	movlw	254
  2624  0CC4  051D               	andwf	(___xxtofl@arg+3)^(0+384),w
  2625  0CC5  1D03               	btfss	3,2
  2626  0CC6  2CC8               	goto	u4301
  2627  0CC7  2CC9               	goto	u4300
  2628  0CC8                     u4301:
  2629  0CC8  2CB6               	goto	l2974
  2630  0CC9                     u4300:
  2631  0CC9  2CE5               	goto	l2986
  2632  0CCA                     l2980:
  2633  0CCA  3001               	movlw	1
  2634  0CCB  00FF               	movwf	btemp+1
  2635  0CCC  087F               	movf	btemp+1,w
  2636  0CCD  0799               	addwf	___xxtofl@exp^(0+384),f
  2637  0CCE                     l2982:
  2638  0CCE  3001               	movlw	1
  2639  0CCF  079A               	addwf	___xxtofl@arg^(0+384),f
  2640  0CD0  3000               	movlw	0
  2641  0CD1  1803               	skipnc
  2642  0CD2  3001               	movlw	1
  2643  0CD3  079B               	addwf	(___xxtofl@arg+1)^(0+384),f
  2644  0CD4  3000               	movlw	0
  2645  0CD5  1803               	skipnc
  2646  0CD6  3001               	movlw	1
  2647  0CD7  079C               	addwf	(___xxtofl@arg+2)^(0+384),f
  2648  0CD8  3000               	movlw	0
  2649  0CD9  1803               	skipnc
  2650  0CDA  3001               	movlw	1
  2651  0CDB  079D               	addwf	(___xxtofl@arg+3)^(0+384),f
  2652  0CDC                     l2984:
  2653  0CDC  3001               	movlw	1
  2654  0CDD                     u4315:
  2655  0CDD  1003               	clrc
  2656  0CDE  0C9D               	rrf	(___xxtofl@arg+3)^(0+384),f
  2657  0CDF  0C9C               	rrf	(___xxtofl@arg+2)^(0+384),f
  2658  0CE0  0C9B               	rrf	(___xxtofl@arg+1)^(0+384),f
  2659  0CE1  0C9A               	rrf	___xxtofl@arg^(0+384),f
  2660  0CE2  3EFF               	addlw	-1
  2661  0CE3  1D03               	skipz
  2662  0CE4  2CDD               	goto	u4315
  2663  0CE5                     l2986:
  2664  0CE5  30FF               	movlw	255
  2665  0CE6  051D               	andwf	(___xxtofl@arg+3)^(0+384),w
  2666  0CE7  1D03               	btfss	3,2
  2667  0CE8  2CEA               	goto	u4321
  2668  0CE9  2CEB               	goto	u4320
  2669  0CEA                     u4321:
  2670  0CEA  2CCA               	goto	l2980
  2671  0CEB                     u4320:
  2672  0CEB  2CF7               	goto	l2990
  2673  0CEC                     l2988:
  2674  0CEC  3001               	movlw	1
  2675  0CED  0299               	subwf	___xxtofl@exp^(0+384),f
  2676  0CEE  3001               	movlw	1
  2677  0CEF  0094               	movwf	??___xxtofl^(0+384)
  2678  0CF0                     u4335:
  2679  0CF0  1003               	clrc
  2680  0CF1  0D9A               	rlf	___xxtofl@arg^(0+384),f
  2681  0CF2  0D9B               	rlf	(___xxtofl@arg+1)^(0+384),f
  2682  0CF3  0D9C               	rlf	(___xxtofl@arg+2)^(0+384),f
  2683  0CF4  0D9D               	rlf	(___xxtofl@arg+3)^(0+384),f
  2684  0CF5  0B94               	decfsz	??___xxtofl^(0+384),f
  2685  0CF6  2CF0               	goto	u4335
  2686  0CF7                     l2990:
  2687  0CF7  1B9C               	btfsc	(___xxtofl@arg+2)^(0+384),7
  2688  0CF8  2CFA               	goto	u4341
  2689  0CF9  2CFB               	goto	u4340
  2690  0CFA                     u4341:
  2691  0CFA  2D01               	goto	l900
  2692  0CFB                     u4340:
  2693  0CFB                     l2992:
  2694  0CFB  3002               	movlw	2
  2695  0CFC  0219               	subwf	___xxtofl@exp^(0+384),w
  2696  0CFD  1803               	skipnc
  2697  0CFE  2D00               	goto	u4351
  2698  0CFF  2D01               	goto	u4350
  2699  0D00                     u4351:
  2700  0D00  2CEC               	goto	l2988
  2701  0D01                     u4350:
  2702  0D01                     l900:
  2703  0D01  1819               	btfsc	___xxtofl@exp^(0+384),0
  2704  0D02  2D04               	goto	u4361
  2705  0D03  2D05               	goto	u4360
  2706  0D04                     u4361:
  2707  0D04  2D0D               	goto	l901
  2708  0D05                     u4360:
  2709  0D05                     l2994:
  2710  0D05  30FF               	movlw	255
  2711  0D06  059A               	andwf	___xxtofl@arg^(0+384),f
  2712  0D07  30FF               	movlw	255
  2713  0D08  059B               	andwf	(___xxtofl@arg+1)^(0+384),f
  2714  0D09  307F               	movlw	127
  2715  0D0A  059C               	andwf	(___xxtofl@arg+2)^(0+384),f
  2716  0D0B  30FF               	movlw	255
  2717  0D0C  059D               	andwf	(___xxtofl@arg+3)^(0+384),f
  2718  0D0D                     l901:
  2719  0D0D  1003               	clrc
  2720  0D0E  0C99               	rrf	___xxtofl@exp^(0+384),f
  2721  0D0F                     l2996:
  2722  0D0F  0819               	movf	___xxtofl@exp^(0+384),w
  2723  0D10  0094               	movwf	??___xxtofl^(0+384)
  2724  0D11  0195               	clrf	(??___xxtofl^(0+384)+1)
  2725  0D12  0196               	clrf	(??___xxtofl^(0+384)+2)
  2726  0D13  0197               	clrf	(??___xxtofl^(0+384)+3)
  2727  0D14  3018               	movlw	24
  2728  0D15                     u4375:
  2729  0D15  1003               	clrc
  2730  0D16  0D94               	rlf	??___xxtofl^(0+384),f
  2731  0D17  0D95               	rlf	(??___xxtofl^(0+384)+1),f
  2732  0D18  0D96               	rlf	(??___xxtofl^(0+384)+2),f
  2733  0D19  0D97               	rlf	(??___xxtofl^(0+384)+3),f
  2734  0D1A                     u4370:
  2735  0D1A  3EFF               	addlw	-1
  2736  0D1B  1D03               	skipz
  2737  0D1C  2D15               	goto	u4375
  2738  0D1D  0814               	movf	??___xxtofl^(0+384),w
  2739  0D1E  049A               	iorwf	___xxtofl@arg^(0+384),f
  2740  0D1F  0815               	movf	(??___xxtofl+1)^(0+384),w
  2741  0D20  049B               	iorwf	(___xxtofl@arg+1)^(0+384),f
  2742  0D21  0816               	movf	(??___xxtofl+2)^(0+384),w
  2743  0D22  049C               	iorwf	(___xxtofl@arg+2)^(0+384),f
  2744  0D23  0817               	movf	(??___xxtofl+3)^(0+384),w
  2745  0D24  049D               	iorwf	(___xxtofl@arg+3)^(0+384),f
  2746  0D25                     l2998:
  2747  0D25  0818               	movf	___xxtofl@sign^(0+384),w
  2748  0D26  1903               	btfsc	3,2
  2749  0D27  2D29               	goto	u4381
  2750  0D28  2D2A               	goto	u4380
  2751  0D29                     u4381:
  2752  0D29  2D2F               	goto	l3004
  2753  0D2A                     u4380:
  2754  0D2A                     l3000:
  2755  0D2A  1F93               	btfss	(___xxtofl@val+3)^(0+384),7
  2756  0D2B  2D2D               	goto	u4391
  2757  0D2C  2D2E               	goto	u4390
  2758  0D2D                     u4391:
  2759  0D2D  2D2F               	goto	l3004
  2760  0D2E                     u4390:
  2761  0D2E                     l3002:
  2762  0D2E  179D               	bsf	(___xxtofl@arg^(0+384)+3),7
  2763  0D2F                     l3004:
  2764  0D2F  081D               	movf	(___xxtofl@arg+3)^(0+384),w
  2765  0D30  0093               	movwf	(?___xxtofl+3)^(0+384)
  2766  0D31  081C               	movf	(___xxtofl@arg+2)^(0+384),w
  2767  0D32  0092               	movwf	(?___xxtofl+2)^(0+384)
  2768  0D33  081B               	movf	(___xxtofl@arg+1)^(0+384),w
  2769  0D34  0091               	movwf	(?___xxtofl+1)^(0+384)
  2770  0D35  081A               	movf	___xxtofl@arg^(0+384),w
  2771  0D36  0090               	movwf	?___xxtofl^(0+384)
  2772  0D37                     l889:
  2773  0D37  0008               	return
  2774  0D38                     __end_of___xxtofl:
  2775                           
  2776                           	psect	text8
  2777  0B1C                     __ptext8:	
  2778 ;; *************** function ___flge *****************
  2779 ;; Defined at:
  2780 ;;		line 4 in file "C:\Program Files\Microchip\xc8\v2.20\pic\sources\c90\common\flge.c"
  2781 ;; Parameters:    Size  Location     Type
  2782 ;;  ff1             4   14[BANK3 ] unsigned char 
  2783 ;;  ff2             4   18[BANK3 ] unsigned char 
  2784 ;; Auto vars:     Size  Location     Type
  2785 ;;		None
  2786 ;; Return value:  Size  Location     Type
  2787 ;;		None               void
  2788 ;; Registers used:
  2789 ;;		wreg, status,2, status,0
  2790 ;; Tracked objects:
  2791 ;;		On entry : 0/0
  2792 ;;		On exit  : 0/0
  2793 ;;		Unchanged: 0/0
  2794 ;; Data sizes:     COMMON   BANK0   BANK1   BANK3   BANK2
  2795 ;;      Params:         0       0       0       8       0
  2796 ;;      Locals:         0       0       0       0       0
  2797 ;;      Temps:          0       0       0       4       0
  2798 ;;      Totals:         0       0       0      12       0
  2799 ;;Total ram usage:       12 bytes
  2800 ;; Hardware stack levels used:    1
  2801 ;; Hardware stack levels required when called:    6
  2802 ;; This function calls:
  2803 ;;		Nothing
  2804 ;; This function is called by:
  2805 ;;		_Heating_and_Cooling
  2806 ;; This function uses a non-reentrant model
  2807 ;;
  2808                           
  2809                           
  2810                           ;psect for function ___flge
  2811  0B1C                     ___flge:
  2812  0B1C                     l2700:	
  2813                           ;incstack = 0
  2814                           ; Regs used in ___flge: [wreg+status,2+status,0]
  2815                           
  2816  0B1C  3000               	movlw	0
  2817  0B1D  1683               	bsf	3,5	;RP0=1, select bank3
  2818  0B1E  1703               	bsf	3,6	;RP1=1, select bank3
  2819  0B1F  051E               	andwf	___flge@ff1^(0+384),w
  2820  0B20  00A6               	movwf	??___flge^(0+384)
  2821  0B21  3000               	movlw	0
  2822  0B22  051F               	andwf	(___flge@ff1+1)^(0+384),w
  2823  0B23  00A7               	movwf	(??___flge^(0+384)+1)
  2824  0B24  3080               	movlw	128
  2825  0B25  0520               	andwf	(___flge@ff1+2)^(0+384),w
  2826  0B26  00A8               	movwf	(??___flge^(0+384)+2)
  2827  0B27  307F               	movlw	127
  2828  0B28  0521               	andwf	(___flge@ff1+3)^(0+384),w
  2829  0B29  00A9               	movwf	(??___flge^(0+384)+3)
  2830  0B2A  0829               	movf	(??___flge+3)^(0+384),w
  2831  0B2B  0428               	iorwf	(??___flge+2)^(0+384),w
  2832  0B2C  0427               	iorwf	(??___flge+1)^(0+384),w
  2833  0B2D  0426               	iorwf	??___flge^(0+384),w
  2834  0B2E  1D03               	skipz
  2835  0B2F  2B31               	goto	u3631
  2836  0B30  2B32               	goto	u3630
  2837  0B31                     u3631:
  2838  0B31  2B3A               	goto	l628
  2839  0B32                     u3630:
  2840  0B32                     l2702:
  2841  0B32  3000               	movlw	0
  2842  0B33  00A1               	movwf	(___flge@ff1+3)^(0+384)
  2843  0B34  3000               	movlw	0
  2844  0B35  00A0               	movwf	(___flge@ff1+2)^(0+384)
  2845  0B36  3000               	movlw	0
  2846  0B37  009F               	movwf	(___flge@ff1+1)^(0+384)
  2847  0B38  3000               	movlw	0
  2848  0B39  009E               	movwf	___flge@ff1^(0+384)
  2849  0B3A                     l628:
  2850  0B3A  3000               	movlw	0
  2851  0B3B  0522               	andwf	___flge@ff2^(0+384),w
  2852  0B3C  00A6               	movwf	??___flge^(0+384)
  2853  0B3D  3000               	movlw	0
  2854  0B3E  0523               	andwf	(___flge@ff2+1)^(0+384),w
  2855  0B3F  00A7               	movwf	(??___flge^(0+384)+1)
  2856  0B40  3080               	movlw	128
  2857  0B41  0524               	andwf	(___flge@ff2+2)^(0+384),w
  2858  0B42  00A8               	movwf	(??___flge^(0+384)+2)
  2859  0B43  307F               	movlw	127
  2860  0B44  0525               	andwf	(___flge@ff2+3)^(0+384),w
  2861  0B45  00A9               	movwf	(??___flge^(0+384)+3)
  2862  0B46  0829               	movf	(??___flge+3)^(0+384),w
  2863  0B47  0428               	iorwf	(??___flge+2)^(0+384),w
  2864  0B48  0427               	iorwf	(??___flge+1)^(0+384),w
  2865  0B49  0426               	iorwf	??___flge^(0+384),w
  2866  0B4A  1D03               	skipz
  2867  0B4B  2B4D               	goto	u3641
  2868  0B4C  2B4E               	goto	u3640
  2869  0B4D                     u3641:
  2870  0B4D  2B56               	goto	l2706
  2871  0B4E                     u3640:
  2872  0B4E                     l2704:
  2873  0B4E  3000               	movlw	0
  2874  0B4F  00A5               	movwf	(___flge@ff2+3)^(0+384)
  2875  0B50  3000               	movlw	0
  2876  0B51  00A4               	movwf	(___flge@ff2+2)^(0+384)
  2877  0B52  3000               	movlw	0
  2878  0B53  00A3               	movwf	(___flge@ff2+1)^(0+384)
  2879  0B54  3000               	movlw	0
  2880  0B55  00A2               	movwf	___flge@ff2^(0+384)
  2881  0B56                     l2706:
  2882  0B56  1FA1               	btfss	(___flge@ff1+3)^(0+384),7
  2883  0B57  2B59               	goto	u3651
  2884  0B58  2B5A               	goto	u3650
  2885  0B59                     u3651:
  2886  0B59  2B7E               	goto	l2710
  2887  0B5A                     u3650:
  2888  0B5A                     l2708:
  2889  0B5A  3000               	movlw	0
  2890  0B5B  00A6               	movwf	??___flge^(0+384)
  2891  0B5C  3000               	movlw	0
  2892  0B5D  00A7               	movwf	(??___flge^(0+384)+1)
  2893  0B5E  3000               	movlw	0
  2894  0B5F  00A8               	movwf	(??___flge^(0+384)+2)
  2895  0B60  3080               	movlw	128
  2896  0B61  00A9               	movwf	(??___flge^(0+384)+3)
  2897  0B62  081E               	movf	___flge@ff1^(0+384),w
  2898  0B63  02A6               	subwf	??___flge^(0+384),f
  2899  0B64  081F               	movf	(___flge@ff1+1)^(0+384),w
  2900  0B65  1C03               	skipc
  2901  0B66  0F1F               	incfsz	(___flge@ff1+1)^(0+384),w
  2902  0B67  2B69               	goto	u3661
  2903  0B68  2B6A               	goto	u3662
  2904  0B69                     u3661:
  2905  0B69  02A7               	subwf	(??___flge^(0+384)+1),f
  2906  0B6A                     u3662:
  2907  0B6A  0820               	movf	(___flge@ff1+2)^(0+384),w
  2908  0B6B  1C03               	skipc
  2909  0B6C  0F20               	incfsz	(___flge@ff1+2)^(0+384),w
  2910  0B6D  2B6F               	goto	u3663
  2911  0B6E  2B70               	goto	u3664
  2912  0B6F                     u3663:
  2913  0B6F  02A8               	subwf	(??___flge^(0+384)+2),f
  2914  0B70                     u3664:
  2915  0B70  0821               	movf	(___flge@ff1+3)^(0+384),w
  2916  0B71  1C03               	skipc
  2917  0B72  0F21               	incfsz	(___flge@ff1+3)^(0+384),w
  2918  0B73  2B75               	goto	u3665
  2919  0B74  2B76               	goto	u3666
  2920  0B75                     u3665:
  2921  0B75  02A9               	subwf	(??___flge^(0+384)+3),f
  2922  0B76                     u3666:
  2923  0B76  0829               	movf	(??___flge+3)^(0+384),w
  2924  0B77  00A1               	movwf	(___flge@ff1+3)^(0+384)
  2925  0B78  0828               	movf	(??___flge+2)^(0+384),w
  2926  0B79  00A0               	movwf	(___flge@ff1+2)^(0+384)
  2927  0B7A  0827               	movf	(??___flge+1)^(0+384),w
  2928  0B7B  009F               	movwf	(___flge@ff1+1)^(0+384)
  2929  0B7C  0826               	movf	??___flge^(0+384),w
  2930  0B7D  009E               	movwf	___flge@ff1^(0+384)
  2931  0B7E                     l2710:
  2932  0B7E  1FA5               	btfss	(___flge@ff2+3)^(0+384),7
  2933  0B7F  2B81               	goto	u3671
  2934  0B80  2B82               	goto	u3670
  2935  0B81                     u3671:
  2936  0B81  2BA6               	goto	l631
  2937  0B82                     u3670:
  2938  0B82                     l2712:
  2939  0B82  3000               	movlw	0
  2940  0B83  00A6               	movwf	??___flge^(0+384)
  2941  0B84  3000               	movlw	0
  2942  0B85  00A7               	movwf	(??___flge^(0+384)+1)
  2943  0B86  3000               	movlw	0
  2944  0B87  00A8               	movwf	(??___flge^(0+384)+2)
  2945  0B88  3080               	movlw	128
  2946  0B89  00A9               	movwf	(??___flge^(0+384)+3)
  2947  0B8A  0822               	movf	___flge@ff2^(0+384),w
  2948  0B8B  02A6               	subwf	??___flge^(0+384),f
  2949  0B8C  0823               	movf	(___flge@ff2+1)^(0+384),w
  2950  0B8D  1C03               	skipc
  2951  0B8E  0F23               	incfsz	(___flge@ff2+1)^(0+384),w
  2952  0B8F  2B91               	goto	u3681
  2953  0B90  2B92               	goto	u3682
  2954  0B91                     u3681:
  2955  0B91  02A7               	subwf	(??___flge^(0+384)+1),f
  2956  0B92                     u3682:
  2957  0B92  0824               	movf	(___flge@ff2+2)^(0+384),w
  2958  0B93  1C03               	skipc
  2959  0B94  0F24               	incfsz	(___flge@ff2+2)^(0+384),w
  2960  0B95  2B97               	goto	u3683
  2961  0B96  2B98               	goto	u3684
  2962  0B97                     u3683:
  2963  0B97  02A8               	subwf	(??___flge^(0+384)+2),f
  2964  0B98                     u3684:
  2965  0B98  0825               	movf	(___flge@ff2+3)^(0+384),w
  2966  0B99  1C03               	skipc
  2967  0B9A  0F25               	incfsz	(___flge@ff2+3)^(0+384),w
  2968  0B9B  2B9D               	goto	u3685
  2969  0B9C  2B9E               	goto	u3686
  2970  0B9D                     u3685:
  2971  0B9D  02A9               	subwf	(??___flge^(0+384)+3),f
  2972  0B9E                     u3686:
  2973  0B9E  0829               	movf	(??___flge+3)^(0+384),w
  2974  0B9F  00A5               	movwf	(___flge@ff2+3)^(0+384)
  2975  0BA0  0828               	movf	(??___flge+2)^(0+384),w
  2976  0BA1  00A4               	movwf	(___flge@ff2+2)^(0+384)
  2977  0BA2  0827               	movf	(??___flge+1)^(0+384),w
  2978  0BA3  00A3               	movwf	(___flge@ff2+1)^(0+384)
  2979  0BA4  0826               	movf	??___flge^(0+384),w
  2980  0BA5  00A2               	movwf	___flge@ff2^(0+384)
  2981  0BA6                     l631:
  2982  0BA6  3080               	movlw	128
  2983  0BA7  06A1               	xorwf	(___flge@ff1+3)^(0+384),f
  2984  0BA8  3080               	movlw	128
  2985  0BA9  06A5               	xorwf	(___flge@ff2+3)^(0+384),f
  2986  0BAA  0825               	movf	(___flge@ff2+3)^(0+384),w
  2987  0BAB  0221               	subwf	(___flge@ff1+3)^(0+384),w
  2988  0BAC  1D03               	skipz
  2989  0BAD  2BB8               	goto	u3695
  2990  0BAE  0824               	movf	(___flge@ff2+2)^(0+384),w
  2991  0BAF  0220               	subwf	(___flge@ff1+2)^(0+384),w
  2992  0BB0  1D03               	skipz
  2993  0BB1  2BB8               	goto	u3695
  2994  0BB2  0823               	movf	(___flge@ff2+1)^(0+384),w
  2995  0BB3  021F               	subwf	(___flge@ff1+1)^(0+384),w
  2996  0BB4  1D03               	skipz
  2997  0BB5  2BB8               	goto	u3695
  2998  0BB6  0822               	movf	___flge@ff2^(0+384),w
  2999  0BB7  021E               	subwf	___flge@ff1^(0+384),w
  3000  0BB8                     u3695:
  3001  0BB8  1803               	skipnc
  3002  0BB9  2BBB               	goto	u3691
  3003  0BBA  2BBC               	goto	u3690
  3004  0BBB                     u3691:
  3005  0BBB  2BBE               	goto	l2716
  3006  0BBC                     u3690:
  3007  0BBC                     l2714:
  3008  0BBC  1003               	clrc
  3009  0BBD  2BBF               	goto	l632
  3010  0BBE                     l2716:
  3011  0BBE  1403               	setc
  3012  0BBF                     l632:
  3013  0BBF  0008               	return
  3014  0BC0                     __end_of___flge:
  3015                           
  3016                           	psect	text9
  3017  1663                     __ptext9:	
  3018 ;; *************** function _EX_Interrupt_INIT *****************
  3019 ;; Defined at:
  3020 ;;		line 14 in file "EX_INT.c"
  3021 ;; Parameters:    Size  Location     Type
  3022 ;;  PtrToFunc       1    wreg     PTR FTN()void 
  3023 ;;		 -> ISR_CallBack(1), 
  3024 ;; Auto vars:     Size  Location     Type
  3025 ;;  PtrToFunc       1    0[BANK3 ] PTR FTN()void 
  3026 ;;		 -> ISR_CallBack(1), 
  3027 ;; Return value:  Size  Location     Type
  3028 ;;                  1    wreg      void 
  3029 ;; Registers used:
  3030 ;;		wreg, btemp+1
  3031 ;; Tracked objects:
  3032 ;;		On entry : 0/0
  3033 ;;		On exit  : 0/0
  3034 ;;		Unchanged: 0/0
  3035 ;; Data sizes:     COMMON   BANK0   BANK1   BANK3   BANK2
  3036 ;;      Params:         0       0       0       0       0
  3037 ;;      Locals:         0       0       0       1       0
  3038 ;;      Temps:          0       0       0       0       0
  3039 ;;      Totals:         0       0       0       1       0
  3040 ;;Total ram usage:        1 bytes
  3041 ;; Hardware stack levels used:    1
  3042 ;; Hardware stack levels required when called:    6
  3043 ;; This function calls:
  3044 ;;		Nothing
  3045 ;; This function is called by:
  3046 ;;		_main
  3047 ;; This function uses a non-reentrant model
  3048 ;;
  3049                           
  3050                           
  3051                           ;psect for function _EX_Interrupt_INIT
  3052  1663                     _EX_Interrupt_INIT:
  3053                           
  3054                           ;incstack = 0
  3055                           ; Regs used in _EX_Interrupt_INIT: [wreg+btemp+1]
  3056                           ;EX_Interrupt_INIT@PtrToFunc stored from wreg
  3057  1663  1683               	bsf	3,5	;RP0=1, select bank3
  3058  1664  1703               	bsf	3,6	;RP1=1, select bank3
  3059  1665  0090               	movwf	EX_Interrupt_INIT@PtrToFunc^(0+384)
  3060  1666                     l3292:
  3061                           
  3062                           ;EX_INT.c: 14: void EX_Interrupt_INIT( void (*PtrToFunc)(void) );EX_INT.c: 15: {;EX_INT.
      +                          c: 16:     TRISB0=1;
  3063  1666  1683               	bsf	3,5	;RP0=1, select bank1
  3064  1667  1303               	bcf	3,6	;RP1=0, select bank1
  3065  1668  1406               	bsf	6,0	;volatile
  3066                           
  3067                           ;EX_INT.c: 17:     INTEDG=1;
  3068  1669  1701               	bsf	1,6	;volatile
  3069                           
  3070                           ;EX_INT.c: 18:     INTE=1;
  3071  166A  160B               	bsf	11,4	;volatile
  3072                           
  3073                           ;EX_INT.c: 19:     GIE=1;
  3074  166B  178B               	bsf	11,7	;volatile
  3075  166C                     l3294:
  3076                           
  3077                           ;EX_INT.c: 20:     EX_INT_CallBack = PtrToFunc;
  3078  166C  1683               	bsf	3,5	;RP0=1, select bank3
  3079  166D  1703               	bsf	3,6	;RP1=1, select bank3
  3080  166E  0810               	movf	EX_Interrupt_INIT@PtrToFunc^(0+384),w
  3081  166F  00FF               	movwf	btemp+1
  3082  1670  087F               	movf	btemp+1,w
  3083  1671  1683               	bsf	3,5	;RP0=1, select bank1
  3084  1672  1303               	bcf	3,6	;RP1=0, select bank1
  3085  1673  00D3               	movwf	_EX_INT_CallBack^(0+128)
  3086  1674                     l363:
  3087  1674  0008               	return
  3088  1675                     __end_of_EX_Interrupt_INIT:
  3089                           
  3090                           	psect	text10
  3091  085E                     __ptext10:	
  3092 ;; *************** function _EEPROM_Read *****************
  3093 ;; Defined at:
  3094 ;;		line 28 in file "EX_EEPROM.c"
  3095 ;; Parameters:    Size  Location     Type
  3096 ;;  page            1    wreg     unsigned char 
  3097 ;;  address         1    1[BANK3 ] unsigned char 
  3098 ;;  Data            1    2[BANK3 ] PTR unsigned char 
  3099 ;;		 -> Temperature(1), 
  3100 ;; Auto vars:     Size  Location     Type
  3101 ;;  page            1    3[BANK3 ] unsigned char 
  3102 ;; Return value:  Size  Location     Type
  3103 ;;                  1    wreg      void 
  3104 ;; Registers used:
  3105 ;;		wreg, fsr0l, fsr0h, status,2, status,0, btemp+1, pclath, cstack
  3106 ;; Tracked objects:
  3107 ;;		On entry : 0/0
  3108 ;;		On exit  : 0/0
  3109 ;;		Unchanged: 0/0
  3110 ;; Data sizes:     COMMON   BANK0   BANK1   BANK3   BANK2
  3111 ;;      Params:         0       0       0       2       0
  3112 ;;      Locals:         0       0       0       1       0
  3113 ;;      Temps:          0       0       0       0       0
  3114 ;;      Totals:         0       0       0       3       0
  3115 ;;Total ram usage:        3 bytes
  3116 ;; Hardware stack levels used:    1
  3117 ;; Hardware stack levels required when called:    8
  3118 ;; This function calls:
  3119 ;;		_I2C_NACK
  3120 ;;		_I2C_Read_Data
  3121 ;;		_I2C_Start
  3122 ;;		_I2C_Stop
  3123 ;;		_I2C_Write_Address
  3124 ;;		_I2C_Write_Data
  3125 ;; This function is called by:
  3126 ;;		_main
  3127 ;; This function uses a non-reentrant model
  3128 ;;
  3129                           
  3130                           
  3131                           ;psect for function _EEPROM_Read
  3132  085E                     _EEPROM_Read:
  3133                           
  3134                           ;incstack = 0
  3135 ;; hardware stack exceeded
  3136                           ; Regs used in _EEPROM_Read: [wreg-fsr0h+status,2+status,0+btemp+1+pclath+cstack]
  3137                           ;EEPROM_Read@page stored from wreg
  3138  085E  1683               	bsf	3,5	;RP0=1, select bank3
  3139  085F  1703               	bsf	3,6	;RP1=1, select bank3
  3140  0860  0093               	movwf	EEPROM_Read@page^(0+384)
  3141  0861                     l3316:
  3142                           
  3143                           ;EX_EEPROM.c: 28: void EEPROM_Read(unsigned char page,unsigned char address,unsigned cha
      +                          r * Data );EX_EEPROM.c: 29: {;EX_EEPROM.c: 30:         I2C_Start();
  3144  0861  160A  118A  25CF  120A  158A  	fcall	_I2C_Start
  3145                           
  3146                           ;EX_EEPROM.c: 31:         I2C_Write_Address(0xA0 +page);
  3147  0866  1683               	bsf	3,5	;RP0=1, select bank3
  3148  0867  1703               	bsf	3,6	;RP1=1, select bank3
  3149  0868  0813               	movf	EEPROM_Read@page^(0+384),w
  3150  0869  3EA0               	addlw	160
  3151  086A  160A  118A  2688  120A  158A  	fcall	_I2C_Write_Address
  3152                           
  3153                           ;EX_EEPROM.c: 32:         I2C_Write_Data(address);
  3154  086F  1683               	bsf	3,5	;RP0=1, select bank3
  3155  0870  1703               	bsf	3,6	;RP1=1, select bank3
  3156  0871  0811               	movf	EEPROM_Read@address^(0+384),w
  3157  0872  120A  118A  27E1  120A  158A  	fcall	_I2C_Write_Data
  3158                           
  3159                           ;EX_EEPROM.c: 33:         I2C_Start();
  3160  0877  160A  118A  25CF  120A  158A  	fcall	_I2C_Start
  3161                           
  3162                           ;EX_EEPROM.c: 34:         I2C_Write_Data(0xA1 +page);
  3163  087C  1683               	bsf	3,5	;RP0=1, select bank3
  3164  087D  1703               	bsf	3,6	;RP1=1, select bank3
  3165  087E  0813               	movf	EEPROM_Read@page^(0+384),w
  3166  087F  3EA1               	addlw	161
  3167  0880  120A  118A  27E1  120A  158A  	fcall	_I2C_Write_Data
  3168  0885                     l3318:
  3169                           
  3170                           ;EX_EEPROM.c: 35:         *Data=I2C_Read_Data();
  3171  0885  160A  118A  26CC  120A  158A  	fcall	_I2C_Read_Data
  3172  088A  00FF               	movwf	btemp+1
  3173  088B  1683               	bsf	3,5	;RP0=1, select bank3
  3174  088C  1703               	bsf	3,6	;RP1=1, select bank3
  3175  088D  0812               	movf	EEPROM_Read@Data^(0+384),w
  3176  088E  0084               	movwf	4
  3177  088F  087F               	movf	btemp+1,w
  3178  0890  1783               	bsf	3,7	;select IRP bank2
  3179  0891  0080               	movwf	0
  3180  0892                     l3320:
  3181                           
  3182                           ;EX_EEPROM.c: 36:         I2C_NACK();
  3183  0892  160A  118A  2641  120A  158A  	fcall	_I2C_NACK
  3184  0897                     l3322:
  3185                           
  3186                           ;EX_EEPROM.c: 37:         I2C_Stop();
  3187  0897  160A  118A  2623  120A  158A  	fcall	_I2C_Stop
  3188  089C                     l270:
  3189  089C  0008               	return
  3190  089D                     __end_of_EEPROM_Read:
  3191                           
  3192                           	psect	text11
  3193  07E1                     __ptext11:	
  3194 ;; *************** function _I2C_Write_Data *****************
  3195 ;; Defined at:
  3196 ;;		line 60 in file "I2C.c"
  3197 ;; Parameters:    Size  Location     Type
  3198 ;;  Data            1    wreg     unsigned char 
  3199 ;; Auto vars:     Size  Location     Type
  3200 ;;  Data            1    0[BANK3 ] unsigned char 
  3201 ;; Return value:  Size  Location     Type
  3202 ;;                  1    wreg      void 
  3203 ;; Registers used:
  3204 ;;		wreg, status,2, status,0, pclath, cstack
  3205 ;; Tracked objects:
  3206 ;;		On entry : 0/0
  3207 ;;		On exit  : 0/0
  3208 ;;		Unchanged: 0/0
  3209 ;; Data sizes:     COMMON   BANK0   BANK1   BANK3   BANK2
  3210 ;;      Params:         0       0       0       0       0
  3211 ;;      Locals:         0       0       0       1       0
  3212 ;;      Temps:          0       0       0       0       0
  3213 ;;      Totals:         0       0       0       1       0
  3214 ;;Total ram usage:        1 bytes
  3215 ;; Hardware stack levels used:    1
  3216 ;; Hardware stack levels required when called:    7
  3217 ;; This function calls:
  3218 ;;		_Wait_IdleState
  3219 ;; This function is called by:
  3220 ;;		_EEPROM_Read
  3221 ;;		_EEPROM_Write_Page
  3222 ;;		_EEPROM_Read_Page
  3223 ;; This function uses a non-reentrant model
  3224 ;;
  3225                           
  3226                           
  3227                           ;psect for function _I2C_Write_Data
  3228  07E1                     _I2C_Write_Data:
  3229                           
  3230                           ;incstack = 0
  3231 ;; hardware stack exceeded
  3232                           ; Regs used in _I2C_Write_Data: [wreg+status,2+status,0+pclath+cstack]
  3233                           ;I2C_Write_Data@Data stored from wreg
  3234  07E1  1683               	bsf	3,5	;RP0=1, select bank3
  3235  07E2  1703               	bsf	3,6	;RP1=1, select bank3
  3236  07E3  0090               	movwf	I2C_Write_Data@Data^(0+384)
  3237  07E4                     l3278:
  3238                           
  3239                           ;I2C.c: 60: void I2C_Write_Data(unsigned char Data);I2C.c: 61: {;I2C.c: 62:     Wait_Idl
      +                          eState();
  3240  07E4  160A  118A  25FA  120A  118A  	fcall	_Wait_IdleState
  3241  07E9                     l233:	
  3242                           ;I2C.c: 63:     while(ACKSTAT);
  3243                           
  3244  07E9  1683               	bsf	3,5	;RP0=1, select bank1
  3245  07EA  1303               	bcf	3,6	;RP1=0, select bank1
  3246  07EB  1B11               	btfsc	17,6	;volatile
  3247  07EC  2FEE               	goto	u4771
  3248  07ED  2FEF               	goto	u4770
  3249  07EE                     u4771:
  3250  07EE  2FE9               	goto	l233
  3251  07EF                     u4770:
  3252  07EF                     l3280:
  3253                           
  3254                           ;I2C.c: 64:     SSPBUF = Data;
  3255  07EF  1683               	bsf	3,5	;RP0=1, select bank3
  3256  07F0  1703               	bsf	3,6	;RP1=1, select bank3
  3257  07F1  0810               	movf	I2C_Write_Data@Data^(0+384),w
  3258  07F2  1283               	bcf	3,5	;RP0=0, select bank0
  3259  07F3  1303               	bcf	3,6	;RP1=0, select bank0
  3260  07F4  0093               	movwf	19	;volatile
  3261  07F5                     l236:	
  3262                           ;I2C.c: 65:     while(!SSPIF);
  3263                           
  3264  07F5  1D8C               	btfss	12,3	;volatile
  3265  07F6  2FF8               	goto	u4781
  3266  07F7  2FF9               	goto	u4780
  3267  07F8                     u4781:
  3268  07F8  2FF5               	goto	l236
  3269  07F9                     u4780:
  3270  07F9                     l238:
  3271                           
  3272                           ;I2C.c: 66:     SSPIF = 0;
  3273  07F9  118C               	bcf	12,3	;volatile
  3274  07FA                     l3282:
  3275                           
  3276                           ;I2C.c: 67:     Wait_IdleState();
  3277  07FA  160A  118A  25FA  120A  118A  	fcall	_Wait_IdleState
  3278  07FF                     l239:
  3279  07FF  0008               	return
  3280  0800                     __end_of_I2C_Write_Data:
  3281                           
  3282                           	psect	text12
  3283  1688                     __ptext12:	
  3284 ;; *************** function _I2C_Write_Address *****************
  3285 ;; Defined at:
  3286 ;;		line 54 in file "I2C.c"
  3287 ;; Parameters:    Size  Location     Type
  3288 ;;  Address         1    wreg     unsigned char 
  3289 ;; Auto vars:     Size  Location     Type
  3290 ;;  Address         1    0[BANK3 ] unsigned char 
  3291 ;; Return value:  Size  Location     Type
  3292 ;;                  1    wreg      void 
  3293 ;; Registers used:
  3294 ;;		wreg, status,2, status,0, pclath, cstack
  3295 ;; Tracked objects:
  3296 ;;		On entry : 0/0
  3297 ;;		On exit  : 0/0
  3298 ;;		Unchanged: 0/0
  3299 ;; Data sizes:     COMMON   BANK0   BANK1   BANK3   BANK2
  3300 ;;      Params:         0       0       0       0       0
  3301 ;;      Locals:         0       0       0       1       0
  3302 ;;      Temps:          0       0       0       0       0
  3303 ;;      Totals:         0       0       0       1       0
  3304 ;;Total ram usage:        1 bytes
  3305 ;; Hardware stack levels used:    1
  3306 ;; Hardware stack levels required when called:    7
  3307 ;; This function calls:
  3308 ;;		_Wait_IdleState
  3309 ;; This function is called by:
  3310 ;;		_EEPROM_Read
  3311 ;;		_EEPROM_Write_Page
  3312 ;;		_EEPROM_Read_Page
  3313 ;; This function uses a non-reentrant model
  3314 ;;
  3315                           
  3316                           
  3317                           ;psect for function _I2C_Write_Address
  3318  1688                     _I2C_Write_Address:
  3319                           
  3320                           ;incstack = 0
  3321 ;; hardware stack exceeded
  3322                           ; Regs used in _I2C_Write_Address: [wreg+status,2+status,0+pclath+cstack]
  3323                           ;I2C_Write_Address@Address stored from wreg
  3324  1688  1683               	bsf	3,5	;RP0=1, select bank3
  3325  1689  1703               	bsf	3,6	;RP1=1, select bank3
  3326  168A  0090               	movwf	I2C_Write_Address@Address^(0+384)
  3327  168B                     l3272:
  3328                           
  3329                           ;I2C.c: 54: void I2C_Write_Address(unsigned char Address);I2C.c: 55: {;I2C.c: 56:     Wa
      +                          it_IdleState();
  3330  168B  160A  118A  25FA  160A  118A  	fcall	_Wait_IdleState
  3331  1690                     l3274:
  3332                           
  3333                           ;I2C.c: 57:     SSPBUF=Address;
  3334  1690  1683               	bsf	3,5	;RP0=1, select bank3
  3335  1691  1703               	bsf	3,6	;RP1=1, select bank3
  3336  1692  0810               	movf	I2C_Write_Address@Address^(0+384),w
  3337  1693  1283               	bcf	3,5	;RP0=0, select bank0
  3338  1694  1303               	bcf	3,6	;RP1=0, select bank0
  3339  1695  0093               	movwf	19	;volatile
  3340  1696                     l3276:
  3341                           
  3342                           ;I2C.c: 58:     Wait_IdleState();
  3343  1696  160A  118A  25FA  160A  118A  	fcall	_Wait_IdleState
  3344  169B                     l230:
  3345  169B  0008               	return
  3346  169C                     __end_of_I2C_Write_Address:
  3347                           
  3348                           	psect	text13
  3349  1623                     __ptext13:	
  3350 ;; *************** function _I2C_Stop *****************
  3351 ;; Defined at:
  3352 ;;		line 34 in file "I2C.c"
  3353 ;; Parameters:    Size  Location     Type
  3354 ;;		None
  3355 ;; Auto vars:     Size  Location     Type
  3356 ;;		None
  3357 ;; Return value:  Size  Location     Type
  3358 ;;                  1    wreg      void 
  3359 ;; Registers used:
  3360 ;;		wreg, status,2, status,0, pclath, cstack
  3361 ;; Tracked objects:
  3362 ;;		On entry : 0/0
  3363 ;;		On exit  : 0/0
  3364 ;;		Unchanged: 0/0
  3365 ;; Data sizes:     COMMON   BANK0   BANK1   BANK3   BANK2
  3366 ;;      Params:         0       0       0       0       0
  3367 ;;      Locals:         0       0       0       0       0
  3368 ;;      Temps:          0       0       0       0       0
  3369 ;;      Totals:         0       0       0       0       0
  3370 ;;Total ram usage:        0 bytes
  3371 ;; Hardware stack levels used:    1
  3372 ;; Hardware stack levels required when called:    7
  3373 ;; This function calls:
  3374 ;;		_Wait_IdleState
  3375 ;; This function is called by:
  3376 ;;		_EEPROM_Read
  3377 ;;		_EEPROM_Write_Page
  3378 ;;		_EEPROM_Read_Page
  3379 ;; This function uses a non-reentrant model
  3380 ;;
  3381                           
  3382                           
  3383                           ;psect for function _I2C_Stop
  3384  1623                     _I2C_Stop:
  3385  1623                     l3262:	
  3386                           ;incstack = 0
  3387 ;; hardware stack exceeded
  3388                           ; Regs used in _I2C_Stop: [wreg+status,2+status,0+pclath+cstack]
  3389                           
  3390                           
  3391                           ;I2C.c: 36:     Wait_IdleState();
  3392  1623  160A  118A  25FA  160A  118A  	fcall	_Wait_IdleState
  3393  1628                     l3264:
  3394                           
  3395                           ;I2C.c: 37:     PEN=1;
  3396  1628  1683               	bsf	3,5	;RP0=1, select bank1
  3397  1629  1303               	bcf	3,6	;RP1=0, select bank1
  3398  162A  1511               	bsf	17,2	;volatile
  3399                           
  3400                           ;I2C.c: 38:     Wait_IdleState();
  3401  162B  160A  118A  25FA  160A  118A  	fcall	_Wait_IdleState
  3402  1630                     l221:
  3403  1630  0008               	return
  3404  1631                     __end_of_I2C_Stop:
  3405                           
  3406                           	psect	text14
  3407  15CF                     __ptext14:	
  3408 ;; *************** function _I2C_Start *****************
  3409 ;; Defined at:
  3410 ;;		line 24 in file "I2C.c"
  3411 ;; Parameters:    Size  Location     Type
  3412 ;;		None
  3413 ;; Auto vars:     Size  Location     Type
  3414 ;;		None
  3415 ;; Return value:  Size  Location     Type
  3416 ;;                  1    wreg      void 
  3417 ;; Registers used:
  3418 ;;		wreg, status,2, status,0, pclath, cstack
  3419 ;; Tracked objects:
  3420 ;;		On entry : 0/0
  3421 ;;		On exit  : 0/0
  3422 ;;		Unchanged: 0/0
  3423 ;; Data sizes:     COMMON   BANK0   BANK1   BANK3   BANK2
  3424 ;;      Params:         0       0       0       0       0
  3425 ;;      Locals:         0       0       0       0       0
  3426 ;;      Temps:          0       0       0       0       0
  3427 ;;      Totals:         0       0       0       0       0
  3428 ;;Total ram usage:        0 bytes
  3429 ;; Hardware stack levels used:    1
  3430 ;; Hardware stack levels required when called:    7
  3431 ;; This function calls:
  3432 ;;		_Wait_IdleState
  3433 ;; This function is called by:
  3434 ;;		_EEPROM_Read
  3435 ;;		_EEPROM_Write_Page
  3436 ;;		_EEPROM_Read_Page
  3437 ;; This function uses a non-reentrant model
  3438 ;;
  3439                           
  3440                           
  3441                           ;psect for function _I2C_Start
  3442  15CF                     _I2C_Start:
  3443  15CF                     l3258:	
  3444                           ;incstack = 0
  3445 ;; hardware stack exceeded
  3446                           ; Regs used in _I2C_Start: [wreg+status,2+status,0+pclath+cstack]
  3447                           
  3448                           
  3449                           ;I2C.c: 26:     Wait_IdleState();
  3450  15CF  160A  118A  25FA  160A  118A  	fcall	_Wait_IdleState
  3451  15D4                     l3260:
  3452                           
  3453                           ;I2C.c: 27:     SEN=1;
  3454  15D4  1683               	bsf	3,5	;RP0=1, select bank1
  3455  15D5  1303               	bcf	3,6	;RP1=0, select bank1
  3456  15D6  1411               	bsf	17,0	;volatile
  3457  15D7                     l215:
  3458  15D7  0008               	return
  3459  15D8                     __end_of_I2C_Start:
  3460                           
  3461                           	psect	text15
  3462  16CC                     __ptext15:	
  3463 ;; *************** function _I2C_Read_Data *****************
  3464 ;; Defined at:
  3465 ;;		line 70 in file "I2C.c"
  3466 ;; Parameters:    Size  Location     Type
  3467 ;;		None
  3468 ;; Auto vars:     Size  Location     Type
  3469 ;;		None
  3470 ;; Return value:  Size  Location     Type
  3471 ;;                  1    wreg      unsigned char 
  3472 ;; Registers used:
  3473 ;;		wreg, status,2, status,0, pclath, cstack
  3474 ;; Tracked objects:
  3475 ;;		On entry : 0/0
  3476 ;;		On exit  : 0/0
  3477 ;;		Unchanged: 0/0
  3478 ;; Data sizes:     COMMON   BANK0   BANK1   BANK3   BANK2
  3479 ;;      Params:         0       0       0       0       0
  3480 ;;      Locals:         0       0       0       0       0
  3481 ;;      Temps:          0       0       0       0       0
  3482 ;;      Totals:         0       0       0       0       0
  3483 ;;Total ram usage:        0 bytes
  3484 ;; Hardware stack levels used:    1
  3485 ;; Hardware stack levels required when called:    7
  3486 ;; This function calls:
  3487 ;;		_Wait_IdleState
  3488 ;; This function is called by:
  3489 ;;		_EEPROM_Read
  3490 ;;		_EEPROM_Read_Page
  3491 ;; This function uses a non-reentrant model
  3492 ;;
  3493                           
  3494                           
  3495                           ;psect for function _I2C_Read_Data
  3496  16CC                     _I2C_Read_Data:
  3497  16CC                     l3284:	
  3498                           ;incstack = 0
  3499 ;; hardware stack exceeded
  3500                           ; Regs used in _I2C_Read_Data: [wreg+status,2+status,0+pclath+cstack]
  3501                           
  3502                           
  3503                           ;I2C.c: 72:     Wait_IdleState();
  3504  16CC  160A  118A  25FA  160A  118A  	fcall	_Wait_IdleState
  3505  16D1                     l242:	
  3506                           ;I2C.c: 73:     while(ACKSTAT);
  3507                           
  3508  16D1  1683               	bsf	3,5	;RP0=1, select bank1
  3509  16D2  1303               	bcf	3,6	;RP1=0, select bank1
  3510  16D3  1B11               	btfsc	17,6	;volatile
  3511  16D4  2ED6               	goto	u4791
  3512  16D5  2ED7               	goto	u4790
  3513  16D6                     u4791:
  3514  16D6  2ED1               	goto	l242
  3515  16D7                     u4790:
  3516  16D7                     l244:
  3517                           
  3518                           ;I2C.c: 74:     RCEN=1;
  3519  16D7  1591               	bsf	17,3	;volatile
  3520  16D8                     l245:	
  3521                           ;I2C.c: 75:     while(!SSPIF);
  3522                           
  3523  16D8  1283               	bcf	3,5	;RP0=0, select bank0
  3524  16D9  1D8C               	btfss	12,3	;volatile
  3525  16DA  2EDC               	goto	u4801
  3526  16DB  2EDD               	goto	u4800
  3527  16DC                     u4801:
  3528  16DC  2ED8               	goto	l245
  3529  16DD                     u4800:
  3530  16DD                     l247:
  3531                           
  3532                           ;I2C.c: 76:     SSPIF = 0;
  3533  16DD  118C               	bcf	12,3	;volatile
  3534  16DE                     l3286:
  3535                           
  3536                           ;I2C.c: 77:     Wait_IdleState();
  3537  16DE  160A  118A  25FA  160A  118A  	fcall	_Wait_IdleState
  3538  16E3                     l3288:
  3539                           
  3540                           ;I2C.c: 78:     return SSPBUF;
  3541  16E3  1283               	bcf	3,5	;RP0=0, select bank0
  3542  16E4  1303               	bcf	3,6	;RP1=0, select bank0
  3543  16E5  0813               	movf	19,w	;volatile
  3544  16E6                     l248:
  3545  16E6  0008               	return
  3546  16E7                     __end_of_I2C_Read_Data:
  3547                           
  3548                           	psect	text16
  3549  1641                     __ptext16:	
  3550 ;; *************** function _I2C_NACK *****************
  3551 ;; Defined at:
  3552 ;;		line 47 in file "I2C.c"
  3553 ;; Parameters:    Size  Location     Type
  3554 ;;		None
  3555 ;; Auto vars:     Size  Location     Type
  3556 ;;		None
  3557 ;; Return value:  Size  Location     Type
  3558 ;;                  1    wreg      void 
  3559 ;; Registers used:
  3560 ;;		wreg, status,2, status,0, pclath, cstack
  3561 ;; Tracked objects:
  3562 ;;		On entry : 0/0
  3563 ;;		On exit  : 0/0
  3564 ;;		Unchanged: 0/0
  3565 ;; Data sizes:     COMMON   BANK0   BANK1   BANK3   BANK2
  3566 ;;      Params:         0       0       0       0       0
  3567 ;;      Locals:         0       0       0       0       0
  3568 ;;      Temps:          0       0       0       0       0
  3569 ;;      Totals:         0       0       0       0       0
  3570 ;;Total ram usage:        0 bytes
  3571 ;; Hardware stack levels used:    1
  3572 ;; Hardware stack levels required when called:    7
  3573 ;; This function calls:
  3574 ;;		_Wait_IdleState
  3575 ;; This function is called by:
  3576 ;;		_EEPROM_Read
  3577 ;;		_EEPROM_Read_Page
  3578 ;; This function uses a non-reentrant model
  3579 ;;
  3580                           
  3581                           
  3582                           ;psect for function _I2C_NACK
  3583  1641                     _I2C_NACK:
  3584  1641                     l3266:	
  3585                           ;incstack = 0
  3586 ;; hardware stack exceeded
  3587                           ; Regs used in _I2C_NACK: [wreg+status,2+status,0+pclath+cstack]
  3588                           
  3589                           
  3590                           ;I2C.c: 49:     Wait_IdleState();
  3591  1641  160A  118A  25FA  160A  118A  	fcall	_Wait_IdleState
  3592  1646                     l3268:
  3593                           
  3594                           ;I2C.c: 50:     ACKDT=1;
  3595  1646  1683               	bsf	3,5	;RP0=1, select bank1
  3596  1647  1303               	bcf	3,6	;RP1=0, select bank1
  3597  1648  1691               	bsf	17,5	;volatile
  3598                           
  3599                           ;I2C.c: 51:     Wait_IdleState();
  3600  1649  160A  118A  25FA  160A  118A  	fcall	_Wait_IdleState
  3601  164E                     l3270:
  3602                           
  3603                           ;I2C.c: 52:     ACKEN=1;
  3604  164E  1683               	bsf	3,5	;RP0=1, select bank1
  3605  164F  1303               	bcf	3,6	;RP1=0, select bank1
  3606  1650  1611               	bsf	17,4	;volatile
  3607  1651                     l227:
  3608  1651  0008               	return
  3609  1652                     __end_of_I2C_NACK:
  3610                           
  3611                           	psect	text17
  3612  15FA                     __ptext17:	
  3613 ;; *************** function _Wait_IdleState *****************
  3614 ;; Defined at:
  3615 ;;		line 11 in file "I2C.c"
  3616 ;; Parameters:    Size  Location     Type
  3617 ;;		None
  3618 ;; Auto vars:     Size  Location     Type
  3619 ;;		None
  3620 ;; Return value:  Size  Location     Type
  3621 ;;                  1    wreg      void 
  3622 ;; Registers used:
  3623 ;;		wreg, status,2
  3624 ;; Tracked objects:
  3625 ;;		On entry : 0/0
  3626 ;;		On exit  : 0/0
  3627 ;;		Unchanged: 0/0
  3628 ;; Data sizes:     COMMON   BANK0   BANK1   BANK3   BANK2
  3629 ;;      Params:         0       0       0       0       0
  3630 ;;      Locals:         0       0       0       0       0
  3631 ;;      Temps:          0       0       0       0       0
  3632 ;;      Totals:         0       0       0       0       0
  3633 ;;Total ram usage:        0 bytes
  3634 ;; Hardware stack levels used:    1
  3635 ;; Hardware stack levels required when called:    6
  3636 ;; This function calls:
  3637 ;;		Nothing
  3638 ;; This function is called by:
  3639 ;;		_I2C_Start
  3640 ;;		_I2C_Stop
  3641 ;;		_I2C_NACK
  3642 ;;		_I2C_Write_Address
  3643 ;;		_I2C_Write_Data
  3644 ;;		_I2C_Read_Data
  3645 ;;		_I2C_Repeated_Start
  3646 ;;		_I2C_ACK
  3647 ;; This function uses a non-reentrant model
  3648 ;;
  3649                           
  3650                           
  3651                           ;psect for function _Wait_IdleState
  3652  15FA                     _Wait_IdleState:
  3653  15FA                     l3252:	
  3654                           ;incstack = 0
  3655 ;; hardware stack exceeded
  3656                           ; Regs used in _Wait_IdleState: [wreg+status,2]
  3657                           
  3658  15FA                     l3254:	
  3659                           ;I2C.c: 13:     while( (SSPCON2&0b00011111) || (SSPSTAT&0b00000100) );
  3660                           
  3661  15FA  1683               	bsf	3,5	;RP0=1, select bank1
  3662  15FB  1303               	bcf	3,6	;RP1=0, select bank1
  3663  15FC  0811               	movf	17,w	;volatile
  3664  15FD  391F               	andlw	31
  3665  15FE  1D03               	btfss	3,2
  3666  15FF  2E01               	goto	u4751
  3667  1600  2E02               	goto	u4750
  3668  1601                     u4751:
  3669  1601  2DFA               	goto	l3254
  3670  1602                     u4750:
  3671  1602                     l3256:
  3672  1602  1914               	btfsc	20,2	;volatile
  3673  1603  2E05               	goto	u4761
  3674  1604  2E06               	goto	u4760
  3675  1605                     u4761:
  3676  1605  2DFA               	goto	l3254
  3677  1606                     u4760:
  3678  1606                     l209:
  3679  1606  0008               	return
  3680  1607                     __end_of_Wait_IdleState:
  3681                           
  3682                           	psect	text18
  3683  15B0                     __ptext18:	
  3684 ;; *************** function _Buttons_INIT *****************
  3685 ;; Defined at:
  3686 ;;		line 12 in file "BUTTONS.c"
  3687 ;; Parameters:    Size  Location     Type
  3688 ;;		None
  3689 ;; Auto vars:     Size  Location     Type
  3690 ;;		None
  3691 ;; Return value:  Size  Location     Type
  3692 ;;                  1    wreg      void 
  3693 ;; Registers used:
  3694 ;;		None
  3695 ;; Tracked objects:
  3696 ;;		On entry : 0/0
  3697 ;;		On exit  : 0/0
  3698 ;;		Unchanged: 0/0
  3699 ;; Data sizes:     COMMON   BANK0   BANK1   BANK3   BANK2
  3700 ;;      Params:         0       0       0       0       0
  3701 ;;      Locals:         0       0       0       0       0
  3702 ;;      Temps:          0       0       0       0       0
  3703 ;;      Totals:         0       0       0       0       0
  3704 ;;Total ram usage:        0 bytes
  3705 ;; Hardware stack levels used:    1
  3706 ;; Hardware stack levels required when called:    6
  3707 ;; This function calls:
  3708 ;;		Nothing
  3709 ;; This function is called by:
  3710 ;;		_main
  3711 ;; This function uses a non-reentrant model
  3712 ;;
  3713                           
  3714                           
  3715                           ;psect for function _Buttons_INIT
  3716  15B0                     _Buttons_INIT:
  3717  15B0                     l3312:	
  3718                           ;incstack = 0
  3719                           ; Regs used in _Buttons_INIT: []
  3720                           
  3721                           
  3722                           ;BUTTONS.c: 14:     TRISB2 = 1 ;
  3723  15B0  1683               	bsf	3,5	;RP0=1, select bank1
  3724  15B1  1303               	bcf	3,6	;RP1=0, select bank1
  3725  15B2  1506               	bsf	6,2	;volatile
  3726                           
  3727                           ;BUTTONS.c: 15:     TRISB1 = 1 ;
  3728  15B3  1486               	bsf	6,1	;volatile
  3729  15B4                     l350:
  3730  15B4  0008               	return
  3731  15B5                     __end_of_Buttons_INIT:
  3732                           
  3733                           	psect	text19
  3734  1706                     __ptext19:	
  3735 ;; *************** function _ADC_INIT *****************
  3736 ;; Defined at:
  3737 ;;		line 11 in file "ADC.c"
  3738 ;; Parameters:    Size  Location     Type
  3739 ;;		None
  3740 ;; Auto vars:     Size  Location     Type
  3741 ;;		None
  3742 ;; Return value:  Size  Location     Type
  3743 ;;                  1    wreg      void 
  3744 ;; Registers used:
  3745 ;;		wreg
  3746 ;; Tracked objects:
  3747 ;;		On entry : 0/0
  3748 ;;		On exit  : 0/0
  3749 ;;		Unchanged: 0/0
  3750 ;; Data sizes:     COMMON   BANK0   BANK1   BANK3   BANK2
  3751 ;;      Params:         0       0       0       0       0
  3752 ;;      Locals:         0       0       0       0       0
  3753 ;;      Temps:          0       0       0       1       0
  3754 ;;      Totals:         0       0       0       1       0
  3755 ;;Total ram usage:        1 bytes
  3756 ;; Hardware stack levels used:    1
  3757 ;; Hardware stack levels required when called:    6
  3758 ;; This function calls:
  3759 ;;		Nothing
  3760 ;; This function is called by:
  3761 ;;		_main
  3762 ;; This function uses a non-reentrant model
  3763 ;;
  3764                           
  3765                           
  3766                           ;psect for function _ADC_INIT
  3767  1706                     _ADC_INIT:
  3768  1706                     l3012:	
  3769                           ;incstack = 0
  3770                           ; Regs used in _ADC_INIT: [wreg]
  3771                           
  3772                           
  3773                           ;ADC.c: 13:     ADCS2=1;
  3774  1706  1683               	bsf	3,5	;RP0=1, select bank1
  3775  1707  1303               	bcf	3,6	;RP1=0, select bank1
  3776  1708  171F               	bsf	31,6	;volatile
  3777                           
  3778                           ;ADC.c: 14:     CHS1=1;
  3779  1709  1283               	bcf	3,5	;RP0=0, select bank0
  3780  170A  1303               	bcf	3,6	;RP1=0, select bank0
  3781  170B  161F               	bsf	31,4	;volatile
  3782                           
  3783                           ;ADC.c: 15:     PCFG3=PCFG0=1;
  3784  170C  1683               	bsf	3,5	;RP0=1, select bank1
  3785  170D  1303               	bcf	3,6	;RP1=0, select bank1
  3786  170E  141F               	bsf	31,0	;volatile
  3787  170F  181F               	btfsc	31,0	;volatile
  3788  1710  2F12               	goto	u4401
  3789  1711  2F16               	goto	u4400
  3790  1712                     u4401:
  3791  1712  1683               	bsf	3,5	;RP0=1, select bank1
  3792  1713  1303               	bcf	3,6	;RP1=0, select bank1
  3793  1714  159F               	bsf	31,3	;volatile
  3794  1715  2F19               	goto	u4414
  3795  1716                     u4400:
  3796  1716  1683               	bsf	3,5	;RP0=1, select bank1
  3797  1717  1303               	bcf	3,6	;RP1=0, select bank1
  3798  1718  119F               	bcf	31,3	;volatile
  3799  1719                     u4414:
  3800                           
  3801                           ;ADC.c: 16:     ADFM=1;
  3802  1719  179F               	bsf	31,7	;volatile
  3803                           
  3804                           ;ADC.c: 17:     ADON=1;
  3805  171A  1283               	bcf	3,5	;RP0=0, select bank0
  3806  171B  1303               	bcf	3,6	;RP1=0, select bank0
  3807  171C  141F               	bsf	31,0	;volatile
  3808  171D                     l3014:
  3809                           
  3810                           ;ADC.c: 18:     _delay((unsigned long)((25)*(4000000/4000000.0)));
  3811  171D  3007               	movlw	7
  3812  171E  1683               	bsf	3,5	;RP0=1, select bank3
  3813  171F  1703               	bsf	3,6	;RP1=1, select bank3
  3814  1720  0090               	movwf	??_ADC_INIT^(0+384)
  3815  1721                     u4917:
  3816  1721  0B90               	decfsz	??_ADC_INIT^(0+384),f
  3817  1722  2F21               	goto	u4917
  3818  1723  0000               	nop
  3819  1724                     l307:
  3820  1724  0008               	return
  3821  1725                     __end_of_ADC_INIT:
  3822                           
  3823                           	psect	text20
  3824  169C                     __ptext20:	
  3825 ;; *************** function _ISR *****************
  3826 ;; Defined at:
  3827 ;;		line 23 in file "EX_INT.c"
  3828 ;; Parameters:    Size  Location     Type
  3829 ;;		None
  3830 ;; Auto vars:     Size  Location     Type
  3831 ;;		None
  3832 ;; Return value:  Size  Location     Type
  3833 ;;                  1    wreg      void 
  3834 ;; Registers used:
  3835 ;;		wreg, fsr0l, fsr0h, status,2, status,0, btemp+1, pclath, cstack
  3836 ;; Tracked objects:
  3837 ;;		On entry : 0/0
  3838 ;;		On exit  : 0/0
  3839 ;;		Unchanged: 0/0
  3840 ;; Data sizes:     COMMON   BANK0   BANK1   BANK3   BANK2
  3841 ;;      Params:         0       0       0       0       0
  3842 ;;      Locals:         0       0       0       0       0
  3843 ;;      Temps:          0       4       0       0       0
  3844 ;;      Totals:         0       4       0       0       0
  3845 ;;Total ram usage:        4 bytes
  3846 ;; Hardware stack levels used:    1
  3847 ;; Hardware stack levels required when called:    5
  3848 ;; This function calls:
  3849 ;;		Absolute function
  3850 ;;		_ISR_CallBack
  3851 ;; This function is called by:
  3852 ;;		Interrupt level 1
  3853 ;; This function uses a non-reentrant model
  3854 ;;
  3855                           
  3856                           
  3857                           ;psect for function _ISR
  3858  169C                     _ISR:
  3859  169C                     i1l3220:
  3860                           
  3861                           ;EX_INT.c: 25:     EX_INT_CallBack();
  3862  169C  1683               	bsf	3,5	;RP0=1, select bank1
  3863  169D  1303               	bcf	3,6	;RP1=0, select bank1
  3864  169E  0853               	movf	_EX_INT_CallBack^(0+128),w
  3865  169F  120A  118A  204E  160A  118A  	fcall	i1fptable
  3866  16A4                     i1l368:
  3867  16A4  1283               	bcf	3,5	;RP0=0, select bank0
  3868  16A5  1303               	bcf	3,6	;RP1=0, select bank0
  3869  16A6  0862               	movf	??_ISR+3,w
  3870  16A7  00FF               	movwf	btemp+1
  3871  16A8  0861               	movf	??_ISR+2,w
  3872  16A9  008A               	movwf	10
  3873  16AA  0860               	movf	??_ISR+1,w
  3874  16AB  0084               	movwf	4
  3875  16AC  0E5F               	swapf	??_ISR^0,w
  3876  16AD  0083               	movwf	3
  3877  16AE  0EFE               	swapf	btemp,f
  3878  16AF  0E7E               	swapf	btemp,w
  3879  16B0  0009               	retfie
  3880  16B1                     __end_of_ISR:
  3881                           
  3882                           	psect	intentry
  3883  0004                     __pintentry:	
  3884                           ;incstack = 0
  3885 ;; hardware stack exceeded
  3886                           ; Regs used in _ISR: [wreg-fsr0h+status,2+status,0+btemp+1+pclath+cstack]
  3887                           
  3888  0004                     interrupt_function:
  3889  007E                     saved_w	set	btemp
  3890  0004  00FE               	movwf	btemp
  3891  0005  0E03               	swapf	3,w
  3892  0006  1283               	bcf	3,5	;RP0=0, select bank0
  3893  0007  1303               	bcf	3,6	;RP1=0, select bank0
  3894  0008  00DF               	movwf	??_ISR
  3895  0009  0804               	movf	4,w
  3896  000A  00E0               	movwf	??_ISR+1
  3897  000B  080A               	movf	10,w
  3898  000C  00E1               	movwf	??_ISR+2
  3899  000D  087F               	movf	btemp+1,w
  3900  000E  00E2               	movwf	??_ISR+3
  3901  000F  160A  118A  2E9C   	ljmp	_ISR
  3902                           
  3903                           	psect	text21
  3904  064C                     __ptext21:	
  3905 ;; *************** function _ISR_CallBack *****************
  3906 ;; Defined at:
  3907 ;;		line 155 in file "main.c"
  3908 ;; Parameters:    Size  Location     Type
  3909 ;;		None
  3910 ;; Auto vars:     Size  Location     Type
  3911 ;;  Temp_average   40    0[BANK1 ] float [10]
  3912 ;; Return value:  Size  Location     Type
  3913 ;;                  1    wreg      void 
  3914 ;; Registers used:
  3915 ;;		wreg, fsr0l, fsr0h, status,2, status,0, btemp+1, pclath, cstack
  3916 ;; Tracked objects:
  3917 ;;		On entry : 0/0
  3918 ;;		On exit  : 0/0
  3919 ;;		Unchanged: 0/0
  3920 ;; Data sizes:     COMMON   BANK0   BANK1   BANK3   BANK2
  3921 ;;      Params:         0       0       0       0       0
  3922 ;;      Locals:         0       0      40       0       0
  3923 ;;      Temps:          0       1       0       0       0
  3924 ;;      Totals:         0       1      40       0       0
  3925 ;;Total ram usage:       41 bytes
  3926 ;; Hardware stack levels used:    1
  3927 ;; Hardware stack levels required when called:    4
  3928 ;; This function calls:
  3929 ;;		_Disable_Display
  3930 ;;		_Disable_Heating_and_Cooling
  3931 ;;		_Display_Num
  3932 ;;		_Sense_Temp
  3933 ;;		___fladd
  3934 ;;		___fldiv
  3935 ;;		___fltol
  3936 ;;		_decrease_Temp
  3937 ;;		_increase_Temp
  3938 ;; This function is called by:
  3939 ;;		_main
  3940 ;;		_ISR
  3941 ;; This function uses a non-reentrant model
  3942 ;;
  3943                           
  3944                           
  3945                           ;psect for function _ISR_CallBack
  3946  064C                     _ISR_CallBack:
  3947  064C                     i1l3056:	
  3948                           ;incstack = 0
  3949 ;; hardware stack exceeded
  3950                           ; Regs used in _ISR_CallBack: [wreg-fsr0h+status,2+status,0+btemp+1+pclath+cstack]
  3951                           
  3952                           
  3953                           ;main.c: 157:     if(INTF)
  3954  064C  1C8B               	btfss	11,1	;volatile
  3955  064D  2E4F               	goto	u448_21
  3956  064E  2E50               	goto	u448_20
  3957  064F                     u448_21:
  3958  064F  2E5D               	goto	i1l3062
  3959  0650                     u448_20:
  3960  0650                     i1l3058:
  3961                           
  3962                           ;main.c: 158:     {;main.c: 159:         Sleep_Mode= !Sleep_Mode;
  3963  0650  1683               	bsf	3,5	;RP0=1, select bank1
  3964  0651  1303               	bcf	3,6	;RP1=0, select bank1
  3965  0652  0854               	movf	_Sleep_Mode^(0+128),w
  3966  0653  1903               	btfsc	3,2
  3967  0654  2E56               	goto	u449_21
  3968  0655  2E58               	goto	u449_20
  3969  0656                     u449_21:
  3970  0656  3001               	movlw	1
  3971  0657  2E59               	goto	u450_20
  3972  0658                     u449_20:
  3973  0658  3000               	movlw	0
  3974  0659                     u450_20:
  3975  0659  00FF               	movwf	btemp+1
  3976  065A  087F               	movf	btemp+1,w
  3977  065B  00D4               	movwf	_Sleep_Mode^(0+128)
  3978  065C                     i1l3060:
  3979                           
  3980                           ;main.c: 160:         INTF=0;
  3981  065C  108B               	bcf	11,1	;volatile
  3982  065D                     i1l3062:
  3983                           
  3984                           ;main.c: 163:     if(Sleep_Mode==1)
  3985  065D  1683               	bsf	3,5	;RP0=1, select bank1
  3986  065E  1303               	bcf	3,6	;RP1=0, select bank1
  3987  065F  0354               	decf	_Sleep_Mode^(0+128),w
  3988  0660  1D03               	btfss	3,2
  3989  0661  2E63               	goto	u451_21
  3990  0662  2E64               	goto	u451_20
  3991  0663                     u451_21:
  3992  0663  2E72               	goto	i1l3068
  3993  0664                     u451_20:
  3994  0664                     i1l3064:
  3995                           
  3996                           ;main.c: 164:     {;main.c: 165:         Disable_Display();
  3997  0664  160A  118A  25AB  120A  118A  	fcall	_Disable_Display
  3998                           
  3999                           ;main.c: 166:         Disable_Heating_and_Cooling();
  4000  0669  160A  118A  25BA  120A  118A  	fcall	_Disable_Heating_and_Cooling
  4001  066E                     i1l3066:
  4002                           
  4003                           ;main.c: 167:         INT1=INT2=0;
  4004  066E  1683               	bsf	3,5	;RP0=1, select bank1
  4005  066F  1303               	bcf	3,6	;RP1=0, select bank1
  4006  0670  01D1               	clrf	_INT2^(0+128)
  4007  0671  01D2               	clrf	_INT1^(0+128)
  4008  0672                     i1l3068:
  4009                           
  4010                           ;main.c: 169:     if(Sleep_Mode==0)
  4011  0672  0854               	movf	_Sleep_Mode^(0+128),w
  4012  0673  1D03               	btfss	3,2
  4013  0674  2E76               	goto	u452_21
  4014  0675  2E77               	goto	u452_20
  4015  0676                     u452_21:
  4016  0676  2FE0               	goto	i1l117
  4017  0677                     u452_20:
  4018  0677                     i1l3070:
  4019                           
  4020                           ;main.c: 170:     {;main.c: 171:         float Temp_average[10];;main.c: 172:         st
      +                          atic unsigned char i=0;;main.c: 173:         static unsigned int Heating_LED_Flag=0;;mai
      +                          n.c: 174:         static unsigned char Milli_Sec=0;;main.c: 177:         if(INT1==1) {de
      +                          crease_Temp();}
  4021  0677  0352               	decf	_INT1^(0+128),w
  4022  0678  1D03               	btfss	3,2
  4023  0679  2E7B               	goto	u453_21
  4024  067A  2E7C               	goto	u453_20
  4025  067B                     u453_21:
  4026  067B  2E81               	goto	i1l3074
  4027  067C                     u453_20:
  4028  067C                     i1l3072:
  4029  067C  160A  118A  27CC  120A  118A  	fcall	_decrease_Temp
  4030  0681                     i1l3074:
  4031                           
  4032                           ;main.c: 180:         if(INT2==1) {increase_Temp();}
  4033  0681  1683               	bsf	3,5	;RP0=1, select bank1
  4034  0682  1303               	bcf	3,6	;RP1=0, select bank1
  4035  0683  0351               	decf	_INT2^(0+128),w
  4036  0684  1D03               	btfss	3,2
  4037  0685  2E87               	goto	u454_21
  4038  0686  2E88               	goto	u454_20
  4039  0687                     u454_21:
  4040  0687  2E8D               	goto	i1l3078
  4041  0688                     u454_20:
  4042  0688                     i1l3076:
  4043  0688  120A  158A  2028  120A  118A  	fcall	_increase_Temp
  4044  068D                     i1l3078:
  4045                           
  4046                           ;main.c: 183:         if(TMR1IF==1)
  4047  068D  1283               	bcf	3,5	;RP0=0, select bank0
  4048  068E  1303               	bcf	3,6	;RP1=0, select bank0
  4049  068F  1C0C               	btfss	12,0	;volatile
  4050  0690  2E92               	goto	u455_21
  4051  0691  2E93               	goto	u455_20
  4052  0692                     u455_21:
  4053  0692  2FE0               	goto	i1l117
  4054  0693                     u455_20:
  4055  0693                     i1l3080:
  4056                           
  4057                           ;main.c: 184:         {;main.c: 186:             TMR1 =60536;
  4058  0693  30EC               	movlw	236
  4059  0694  008F               	movwf	15	;volatile
  4060  0695  3078               	movlw	120
  4061  0696  008E               	movwf	14	;volatile
  4062  0697                     i1l3082:
  4063                           
  4064                           ;main.c: 187:             Heating_LED_Flag++;
  4065  0697  3001               	movlw	1
  4066  0698  1683               	bsf	3,5	;RP0=1, select bank1
  4067  0699  1303               	bcf	3,6	;RP1=0, select bank1
  4068  069A  07C8               	addwf	ISR_CallBack@Heating_LED_Flag^(0+128),f
  4069  069B  1803               	skipnc
  4070  069C  0AC9               	incf	(ISR_CallBack@Heating_LED_Flag+1)^(0+128),f
  4071  069D  3000               	movlw	0
  4072  069E  07C9               	addwf	(ISR_CallBack@Heating_LED_Flag+1)^(0+128),f
  4073  069F                     i1l3084:
  4074                           
  4075                           ;main.c: 188:             Milli_Sec++;
  4076  069F  3001               	movlw	1
  4077  06A0  00FF               	movwf	btemp+1
  4078  06A1  087F               	movf	btemp+1,w
  4079  06A2  07CE               	addwf	ISR_CallBack@Milli_Sec^(0+128),f
  4080  06A3                     i1l3086:
  4081                           
  4082                           ;main.c: 189:             Sec1++;
  4083  06A3  3001               	movlw	1
  4084  06A4  07CC               	addwf	_Sec1^(0+128),f
  4085  06A5  1803               	skipnc
  4086  06A6  0ACD               	incf	(_Sec1+1)^(0+128),f
  4087  06A7  3000               	movlw	0
  4088  06A8  07CD               	addwf	(_Sec1+1)^(0+128),f
  4089  06A9                     i1l3088:
  4090                           
  4091                           ;main.c: 190:             Sec5++;
  4092  06A9  3001               	movlw	1
  4093  06AA  07CA               	addwf	_Sec5^(0+128),f
  4094  06AB  1803               	skipnc
  4095  06AC  0ACB               	incf	(_Sec5+1)^(0+128),f
  4096  06AD  3000               	movlw	0
  4097  06AE  07CB               	addwf	(_Sec5+1)^(0+128),f
  4098  06AF                     i1l3090:
  4099                           
  4100                           ;main.c: 193:             if(i>9)
  4101  06AF  300A               	movlw	10
  4102  06B0  024F               	subwf	ISR_CallBack@i^(0+128),w
  4103  06B1  1C03               	skipc
  4104  06B2  2EB4               	goto	u456_21
  4105  06B3  2EB5               	goto	u456_20
  4106  06B4                     u456_21:
  4107  06B4  2F45               	goto	i1l3110
  4108  06B5                     u456_20:
  4109  06B5                     i1l3092:
  4110                           
  4111                           ;main.c: 194:             {;main.c: 195:                 current_Temp=0;
  4112  06B5  3000               	movlw	0
  4113  06B6  1683               	bsf	3,5	;RP0=1, select bank3
  4114  06B7  1703               	bsf	3,6	;RP1=1, select bank3
  4115  06B8  00B5               	movwf	(_current_Temp+3)^(0+384)
  4116  06B9  3000               	movlw	0
  4117  06BA  00B4               	movwf	(_current_Temp+2)^(0+384)
  4118  06BB  3000               	movlw	0
  4119  06BC  00B3               	movwf	(_current_Temp+1)^(0+384)
  4120  06BD  3000               	movlw	0
  4121  06BE  00B2               	movwf	_current_Temp^(0+384)
  4122  06BF                     i1l3094:
  4123                           
  4124                           ;main.c: 196:                 for(i=0; i<=9; i++) {current_Temp += Temp_average[i];}
  4125  06BF  1683               	bsf	3,5	;RP0=1, select bank1
  4126  06C0  1303               	bcf	3,6	;RP1=0, select bank1
  4127  06C1  01CF               	clrf	ISR_CallBack@i^(0+128)
  4128  06C2                     i1l3096:
  4129  06C2  300A               	movlw	10
  4130  06C3  024F               	subwf	ISR_CallBack@i^(0+128),w
  4131  06C4  1C03               	skipc
  4132  06C5  2EC7               	goto	u457_21
  4133  06C6  2EC8               	goto	u457_20
  4134  06C7                     u457_21:
  4135  06C7  2EC9               	goto	i1l3100
  4136  06C8                     u457_20:
  4137  06C8  2F03               	goto	i1l3106
  4138  06C9                     i1l3100:
  4139  06C9  084F               	movf	ISR_CallBack@i^(0+128),w
  4140  06CA  1283               	bcf	3,5	;RP0=0, select bank0
  4141  06CB  1303               	bcf	3,6	;RP1=0, select bank0
  4142  06CC  00DE               	movwf	??_ISR_CallBack
  4143  06CD  3001               	movlw	1
  4144  06CE                     u458_25:
  4145  06CE  1003               	clrc
  4146  06CF  0DDE               	rlf	??_ISR_CallBack,f
  4147  06D0  3EFF               	addlw	-1
  4148  06D1  1D03               	skipz
  4149  06D2  2ECE               	goto	u458_25
  4150  06D3  1003               	clrc
  4151  06D4  0D5E               	rlf	??_ISR_CallBack,w
  4152  06D5  3EA0               	addlw	(low (ISR_CallBack@Temp_average| 0))& (0+255)
  4153  06D6  0084               	movwf	4
  4154  06D7  1383               	bcf	3,7	;select IRP bank1
  4155  06D8  0800               	movf	0,w
  4156  06D9  00F0               	movwf	___fladd@b
  4157  06DA  0A84               	incf	4,f
  4158  06DB  0800               	movf	0,w
  4159  06DC  00F1               	movwf	___fladd@b+1
  4160  06DD  0A84               	incf	4,f
  4161  06DE  0800               	movf	0,w
  4162  06DF  00F2               	movwf	___fladd@b+2
  4163  06E0  0A84               	incf	4,f
  4164  06E1  0800               	movf	0,w
  4165  06E2  00F3               	movwf	___fladd@b+3
  4166  06E3  1683               	bsf	3,5	;RP0=1, select bank3
  4167  06E4  1703               	bsf	3,6	;RP1=1, select bank3
  4168  06E5  0835               	movf	(_current_Temp+3)^(0+384),w
  4169  06E6  00F7               	movwf	___fladd@a+3
  4170  06E7  0834               	movf	(_current_Temp+2)^(0+384),w
  4171  06E8  00F6               	movwf	___fladd@a+2
  4172  06E9  0833               	movf	(_current_Temp+1)^(0+384),w
  4173  06EA  00F5               	movwf	___fladd@a+1
  4174  06EB  0832               	movf	_current_Temp^(0+384),w
  4175  06EC  00F4               	movwf	___fladd@a
  4176  06ED  120A  118A  23B8  120A  118A  	fcall	___fladd
  4177  06F2  0873               	movf	?___fladd+3,w
  4178  06F3  1683               	bsf	3,5	;RP0=1, select bank3
  4179  06F4  1703               	bsf	3,6	;RP1=1, select bank3
  4180  06F5  00B5               	movwf	(_current_Temp+3)^(0+384)
  4181  06F6  0872               	movf	?___fladd+2,w
  4182  06F7  00B4               	movwf	(_current_Temp+2)^(0+384)
  4183  06F8  0871               	movf	?___fladd+1,w
  4184  06F9  00B3               	movwf	(_current_Temp+1)^(0+384)
  4185  06FA  0870               	movf	?___fladd,w
  4186  06FB  00B2               	movwf	_current_Temp^(0+384)
  4187  06FC                     i1l3102:
  4188  06FC  3001               	movlw	1
  4189  06FD  00FF               	movwf	btemp+1
  4190  06FE  087F               	movf	btemp+1,w
  4191  06FF  1683               	bsf	3,5	;RP0=1, select bank1
  4192  0700  1303               	bcf	3,6	;RP1=0, select bank1
  4193  0701  07CF               	addwf	ISR_CallBack@i^(0+128),f
  4194  0702  2EC2               	goto	i1l3096
  4195  0703                     i1l3106:
  4196                           
  4197                           ;main.c: 197:                 current_Temp /= 10;
  4198  0703  3041               	movlw	65
  4199  0704  1283               	bcf	3,5	;RP0=0, select bank0
  4200  0705  1303               	bcf	3,6	;RP1=0, select bank0
  4201  0706  00C3               	movwf	___fldiv@a+3
  4202  0707  3020               	movlw	32
  4203  0708  00C2               	movwf	___fldiv@a+2
  4204  0709  3000               	movlw	0
  4205  070A  00C1               	movwf	___fldiv@a+1
  4206  070B  3000               	movlw	0
  4207  070C  00C0               	movwf	___fldiv@a
  4208  070D  1683               	bsf	3,5	;RP0=1, select bank3
  4209  070E  1703               	bsf	3,6	;RP1=1, select bank3
  4210  070F  0835               	movf	(_current_Temp+3)^(0+384),w
  4211  0710  1283               	bcf	3,5	;RP0=0, select bank0
  4212  0711  1303               	bcf	3,6	;RP1=0, select bank0
  4213  0712  00C7               	movwf	___fldiv@b+3
  4214  0713  1683               	bsf	3,5	;RP0=1, select bank3
  4215  0714  1703               	bsf	3,6	;RP1=1, select bank3
  4216  0715  0834               	movf	(_current_Temp+2)^(0+384),w
  4217  0716  1283               	bcf	3,5	;RP0=0, select bank0
  4218  0717  1303               	bcf	3,6	;RP1=0, select bank0
  4219  0718  00C6               	movwf	___fldiv@b+2
  4220  0719  1683               	bsf	3,5	;RP0=1, select bank3
  4221  071A  1703               	bsf	3,6	;RP1=1, select bank3
  4222  071B  0833               	movf	(_current_Temp+1)^(0+384),w
  4223  071C  1283               	bcf	3,5	;RP0=0, select bank0
  4224  071D  1303               	bcf	3,6	;RP1=0, select bank0
  4225  071E  00C5               	movwf	___fldiv@b+1
  4226  071F  1683               	bsf	3,5	;RP0=1, select bank3
  4227  0720  1703               	bsf	3,6	;RP1=1, select bank3
  4228  0721  0832               	movf	_current_Temp^(0+384),w
  4229  0722  1283               	bcf	3,5	;RP0=0, select bank0
  4230  0723  1303               	bcf	3,6	;RP1=0, select bank0
  4231  0724  00C4               	movwf	___fldiv@b
  4232  0725  120A  158A  2623  120A  118A  	fcall	___fldiv
  4233  072A  1283               	bcf	3,5	;RP0=0, select bank0
  4234  072B  1303               	bcf	3,6	;RP1=0, select bank0
  4235  072C  0843               	movf	?___fldiv+3,w
  4236  072D  1683               	bsf	3,5	;RP0=1, select bank3
  4237  072E  1703               	bsf	3,6	;RP1=1, select bank3
  4238  072F  00B5               	movwf	(_current_Temp+3)^(0+384)
  4239  0730  1283               	bcf	3,5	;RP0=0, select bank0
  4240  0731  1303               	bcf	3,6	;RP1=0, select bank0
  4241  0732  0842               	movf	?___fldiv+2,w
  4242  0733  1683               	bsf	3,5	;RP0=1, select bank3
  4243  0734  1703               	bsf	3,6	;RP1=1, select bank3
  4244  0735  00B4               	movwf	(_current_Temp+2)^(0+384)
  4245  0736  1283               	bcf	3,5	;RP0=0, select bank0
  4246  0737  1303               	bcf	3,6	;RP1=0, select bank0
  4247  0738  0841               	movf	?___fldiv+1,w
  4248  0739  1683               	bsf	3,5	;RP0=1, select bank3
  4249  073A  1703               	bsf	3,6	;RP1=1, select bank3
  4250  073B  00B3               	movwf	(_current_Temp+1)^(0+384)
  4251  073C  1283               	bcf	3,5	;RP0=0, select bank0
  4252  073D  1303               	bcf	3,6	;RP1=0, select bank0
  4253  073E  0840               	movf	?___fldiv,w
  4254  073F  1683               	bsf	3,5	;RP0=1, select bank3
  4255  0740  1703               	bsf	3,6	;RP1=1, select bank3
  4256  0741  00B2               	movwf	_current_Temp^(0+384)
  4257  0742                     i1l3108:
  4258                           
  4259                           ;main.c: 198:                 i=0;
  4260  0742  1683               	bsf	3,5	;RP0=1, select bank1
  4261  0743  1303               	bcf	3,6	;RP1=0, select bank1
  4262  0744  01CF               	clrf	ISR_CallBack@i^(0+128)
  4263  0745                     i1l3110:
  4264                           
  4265                           ;main.c: 200:             if(Milli_Sec==20)
  4266  0745  3014               	movlw	20
  4267  0746  064E               	xorwf	ISR_CallBack@Milli_Sec^(0+128),w
  4268  0747  1D03               	btfss	3,2
  4269  0748  2F4A               	goto	u459_21
  4270  0749  2F4B               	goto	u459_20
  4271  074A                     u459_21:
  4272  074A  2F73               	goto	i1l3118
  4273  074B                     u459_20:
  4274  074B                     i1l3112:
  4275                           
  4276                           ;main.c: 201:             {;main.c: 202:                 Temp_average[i++]=Sense_Temp();
  4277  074B  120A  158A  209D  120A  118A  	fcall	_Sense_Temp
  4278  0750  1683               	bsf	3,5	;RP0=1, select bank1
  4279  0751  1303               	bcf	3,6	;RP1=0, select bank1
  4280  0752  084F               	movf	ISR_CallBack@i^(0+128),w
  4281  0753  1283               	bcf	3,5	;RP0=0, select bank0
  4282  0754  1303               	bcf	3,6	;RP1=0, select bank0
  4283  0755  00DE               	movwf	??_ISR_CallBack
  4284  0756  3001               	movlw	1
  4285  0757                     u460_25:
  4286  0757  1003               	clrc
  4287  0758  0DDE               	rlf	??_ISR_CallBack,f
  4288  0759  3EFF               	addlw	-1
  4289  075A  1D03               	skipz
  4290  075B  2F57               	goto	u460_25
  4291  075C  1003               	clrc
  4292  075D  0D5E               	rlf	??_ISR_CallBack,w
  4293  075E  3EA0               	addlw	(low (ISR_CallBack@Temp_average| 0))& (0+255)
  4294  075F  0084               	movwf	4
  4295  0760  085A               	movf	?_Sense_Temp,w
  4296  0761  1383               	bcf	3,7	;select IRP bank1
  4297  0762  0080               	movwf	0
  4298  0763  0A84               	incf	4,f
  4299  0764  085B               	movf	?_Sense_Temp+1,w
  4300  0765  0080               	movwf	0
  4301  0766  0A84               	incf	4,f
  4302  0767  085C               	movf	?_Sense_Temp+2,w
  4303  0768  0080               	movwf	0
  4304  0769  0A84               	incf	4,f
  4305  076A  085D               	movf	?_Sense_Temp+3,w
  4306  076B  0080               	movwf	0
  4307  076C                     i1l3114:
  4308  076C  3001               	movlw	1
  4309  076D  00FF               	movwf	btemp+1
  4310  076E  087F               	movf	btemp+1,w
  4311  076F  1683               	bsf	3,5	;RP0=1, select bank1
  4312  0770  1303               	bcf	3,6	;RP1=0, select bank1
  4313  0771  07CF               	addwf	ISR_CallBack@i^(0+128),f
  4314  0772                     i1l3116:
  4315                           
  4316                           ;main.c: 203:                 Milli_Sec=0;
  4317  0772  01CE               	clrf	ISR_CallBack@Milli_Sec^(0+128)
  4318  0773                     i1l3118:
  4319                           
  4320                           ;main.c: 206:             if(Heating_LED_Flag==200 )
  4321  0773  30C8               	movlw	200
  4322  0774  0648               	xorwf	ISR_CallBack@Heating_LED_Flag^(0+128),w
  4323  0775  0449               	iorwf	(ISR_CallBack@Heating_LED_Flag+1)^(0+128),w
  4324  0776  1D03               	btfss	3,2
  4325  0777  2F79               	goto	u461_21
  4326  0778  2F7A               	goto	u461_20
  4327  0779                     u461_21:
  4328  0779  2F86               	goto	i1l3126
  4329  077A                     u461_20:
  4330  077A                     i1l3120:
  4331                           
  4332                           ;main.c: 207:             {;main.c: 208:                 if(RC5==1) {RB7=!RB7; }
  4333  077A  1283               	bcf	3,5	;RP0=0, select bank0
  4334  077B  1303               	bcf	3,6	;RP1=0, select bank0
  4335  077C  1E87               	btfss	7,5	;volatile
  4336  077D  2F7F               	goto	u462_21
  4337  077E  2F80               	goto	u462_20
  4338  077F                     u462_21:
  4339  077F  2F82               	goto	i1l3124
  4340  0780                     u462_20:
  4341  0780                     i1l3122:
  4342  0780  3080               	movlw	128
  4343  0781  0686               	xorwf	6,f
  4344  0782                     i1l3124:
  4345                           
  4346                           ;main.c: 209:                 Heating_LED_Flag=0;
  4347  0782  1683               	bsf	3,5	;RP0=1, select bank1
  4348  0783  1303               	bcf	3,6	;RP1=0, select bank1
  4349  0784  01C8               	clrf	ISR_CallBack@Heating_LED_Flag^(0+128)
  4350  0785  01C9               	clrf	(ISR_CallBack@Heating_LED_Flag+1)^(0+128)
  4351  0786                     i1l3126:
  4352                           
  4353                           ;main.c: 212:             if(Sec5==1000)
  4354  0786  30E8               	movlw	232
  4355  0787  064A               	xorwf	_Sec5^(0+128),w
  4356  0788  3003               	movlw	3
  4357  0789  1903               	skipnz
  4358  078A  064B               	xorwf	(_Sec5+1)^(0+128),w
  4359  078B  1D03               	btfss	3,2
  4360  078C  2F8E               	goto	u463_21
  4361  078D  2F8F               	goto	u463_20
  4362  078E                     u463_21:
  4363  078E  2F94               	goto	i1l3130
  4364  078F                     u463_20:
  4365  078F                     i1l3128:
  4366                           
  4367                           ;main.c: 213:             { Setting_Mode=0; Sec1=Sec5=0; }
  4368  078F  01D0               	clrf	_Setting_Mode^(0+128)
  4369  0790  01CA               	clrf	_Sec5^(0+128)
  4370  0791  01CB               	clrf	(_Sec5+1)^(0+128)
  4371  0792  01CC               	clrf	_Sec1^(0+128)
  4372  0793  01CD               	clrf	(_Sec1+1)^(0+128)
  4373  0794                     i1l3130:
  4374                           
  4375                           ;main.c: 217:             if(Setting_Mode==1)
  4376  0794  0350               	decf	_Setting_Mode^(0+128),w
  4377  0795  1D03               	btfss	3,2
  4378  0796  2F98               	goto	u464_21
  4379  0797  2F99               	goto	u464_20
  4380  0798                     u464_21:
  4381  0798  2FC3               	goto	i1l3144
  4382  0799                     u464_20:
  4383  0799                     i1l3132:
  4384                           
  4385                           ;main.c: 218:             {;main.c: 219:                 if(Sec1<200)
  4386  0799  3000               	movlw	0
  4387  079A  024D               	subwf	(_Sec1+1)^(0+128),w
  4388  079B  30C8               	movlw	200
  4389  079C  1903               	skipnz
  4390  079D  024C               	subwf	_Sec1^(0+128),w
  4391  079E  1803               	skipnc
  4392  079F  2FA1               	goto	u465_21
  4393  07A0  2FA2               	goto	u465_20
  4394  07A1                     u465_21:
  4395  07A1  2FA8               	goto	i1l3136
  4396  07A2                     u465_20:
  4397  07A2                     i1l3134:
  4398                           
  4399                           ;main.c: 220:                 { Disable_Display(); }
  4400  07A2  160A  118A  25AB  120A  118A  	fcall	_Disable_Display
  4401  07A7  2FDD               	goto	i1l3148
  4402  07A8                     i1l3136:
  4403                           
  4404                           ;main.c: 223:                 {;main.c: 224:                    if(Milli_Sec!=0)
  4405  07A8  084E               	movf	ISR_CallBack@Milli_Sec^(0+128),w
  4406  07A9  1903               	btfsc	3,2
  4407  07AA  2FAC               	goto	u466_21
  4408  07AB  2FAD               	goto	u466_20
  4409  07AC                     u466_21:
  4410  07AC  2FB5               	goto	i1l3140
  4411  07AD                     u466_20:
  4412  07AD                     i1l3138:
  4413                           
  4414                           ;main.c: 225:                     {;main.c: 226:                         Display_Num(Tem
      +                          perature);
  4415  07AD  1683               	bsf	3,5	;RP0=1, select bank3
  4416  07AE  1703               	bsf	3,6	;RP1=1, select bank3
  4417  07AF  0836               	movf	_Temperature^(0+384),w
  4418  07B0  160A  118A  2725  120A  118A  	fcall	_Display_Num
  4419  07B5                     i1l3140:
  4420                           
  4421                           ;main.c: 228:                     if(Sec1==400) {Sec1=0;}
  4422  07B5  3090               	movlw	144
  4423  07B6  1683               	bsf	3,5	;RP0=1, select bank1
  4424  07B7  1303               	bcf	3,6	;RP1=0, select bank1
  4425  07B8  064C               	xorwf	_Sec1^(0+128),w
  4426  07B9  1D03               	skipz
  4427  07BA  2FBF               	goto	u467_21
  4428  07BB  034D               	decf	(_Sec1+1)^(0+128),w
  4429  07BC  1D03               	btfss	3,2
  4430  07BD  2FBF               	goto	u467_21
  4431  07BE  2FC0               	goto	u467_20
  4432  07BF                     u467_21:
  4433  07BF  2FDD               	goto	i1l3148
  4434  07C0                     u467_20:
  4435  07C0                     i1l3142:
  4436  07C0  01CC               	clrf	_Sec1^(0+128)
  4437  07C1  01CD               	clrf	(_Sec1+1)^(0+128)
  4438  07C2  2FDD               	goto	i1l3148
  4439  07C3                     i1l3144:
  4440                           
  4441                           ;main.c: 234:             {;main.c: 235:                 if(Milli_Sec!=0)
  4442  07C3  084E               	movf	ISR_CallBack@Milli_Sec^(0+128),w
  4443  07C4  1903               	btfsc	3,2
  4444  07C5  2FC7               	goto	u468_21
  4445  07C6  2FC8               	goto	u468_20
  4446  07C7                     u468_21:
  4447  07C7  2FDD               	goto	i1l3148
  4448  07C8                     u468_20:
  4449  07C8                     i1l3146:
  4450                           
  4451                           ;main.c: 236:                 {;main.c: 237:                     Display_Num((unsigned c
      +                          har)current_Temp);
  4452  07C8  1683               	bsf	3,5	;RP0=1, select bank3
  4453  07C9  1703               	bsf	3,6	;RP1=1, select bank3
  4454  07CA  0835               	movf	(_current_Temp+3)^(0+384),w
  4455  07CB  00F3               	movwf	___fltol@f1+3
  4456  07CC  0834               	movf	(_current_Temp+2)^(0+384),w
  4457  07CD  00F2               	movwf	___fltol@f1+2
  4458  07CE  0833               	movf	(_current_Temp+1)^(0+384),w
  4459  07CF  00F1               	movwf	___fltol@f1+1
  4460  07D0  0832               	movf	_current_Temp^(0+384),w
  4461  07D1  00F0               	movwf	___fltol@f1
  4462  07D2  120A  158A  2219  120A  118A  	fcall	___fltol
  4463  07D7  0870               	movf	?___fltol,w
  4464  07D8  160A  118A  2725  120A  118A  	fcall	_Display_Num
  4465  07DD                     i1l3148:
  4466                           
  4467                           ;main.c: 246:             TMR1IF=0;
  4468  07DD  1283               	bcf	3,5	;RP0=0, select bank0
  4469  07DE  1303               	bcf	3,6	;RP1=0, select bank0
  4470  07DF  100C               	bcf	12,0	;volatile
  4471  07E0                     i1l117:
  4472  07E0  0008               	return
  4473  07E1                     __end_of_ISR_CallBack:
  4474                           
  4475                           	psect	text22
  4476  0828                     __ptext22:	
  4477 ;; *************** function _increase_Temp *****************
  4478 ;; Defined at:
  4479 ;;		line 119 in file "main.c"
  4480 ;; Parameters:    Size  Location     Type
  4481 ;;		None
  4482 ;; Auto vars:     Size  Location     Type
  4483 ;;		None
  4484 ;; Return value:  Size  Location     Type
  4485 ;;                  1    wreg      void 
  4486 ;; Registers used:
  4487 ;;		wreg, status,2, status,0, btemp+1, pclath, cstack
  4488 ;; Tracked objects:
  4489 ;;		On entry : 0/0
  4490 ;;		On exit  : 0/0
  4491 ;;		Unchanged: 0/0
  4492 ;; Data sizes:     COMMON   BANK0   BANK1   BANK3   BANK2
  4493 ;;      Params:         0       0       0       0       0
  4494 ;;      Locals:         0       0       0       0       0
  4495 ;;      Temps:          0       0       0       0       0
  4496 ;;      Totals:         0       0       0       0       0
  4497 ;;Total ram usage:        0 bytes
  4498 ;; Hardware stack levels used:    1
  4499 ;; Hardware stack levels required when called:    3
  4500 ;; This function calls:
  4501 ;;		_EEPROM_Write
  4502 ;; This function is called by:
  4503 ;;		_ISR_CallBack
  4504 ;; This function uses a non-reentrant model
  4505 ;;
  4506                           
  4507                           
  4508                           ;psect for function _increase_Temp
  4509  0828                     _increase_Temp:
  4510  0828                     i1l2606:	
  4511                           ;incstack = 0
  4512 ;; hardware stack exceeded
  4513                           ; Regs used in _increase_Temp: [wreg+status,2+status,0+btemp+1+pclath+cstack]
  4514                           
  4515                           
  4516                           ;main.c: 121:     if(Setting_Mode==1)
  4517  0828  1683               	bsf	3,5	;RP0=1, select bank1
  4518  0829  1303               	bcf	3,6	;RP1=0, select bank1
  4519  082A  0350               	decf	_Setting_Mode^(0+128),w
  4520  082B  1D03               	btfss	3,2
  4521  082C  282E               	goto	u349_21
  4522  082D  282F               	goto	u349_20
  4523  082E                     u349_21:
  4524  082E  285A               	goto	i1l84
  4525  082F                     u349_20:
  4526  082F                     i1l2608:
  4527                           
  4528                           ;main.c: 122:         {;main.c: 123:         if(Temperature>=75) {Temperature=75;}
  4529  082F  304B               	movlw	75
  4530  0830  1683               	bsf	3,5	;RP0=1, select bank3
  4531  0831  1703               	bsf	3,6	;RP1=1, select bank3
  4532  0832  0236               	subwf	_Temperature^(0+384),w
  4533  0833  1C03               	skipc
  4534  0834  2836               	goto	u350_21
  4535  0835  2837               	goto	u350_20
  4536  0836                     u350_21:
  4537  0836  283C               	goto	i1l2612
  4538  0837                     u350_20:
  4539  0837                     i1l2610:
  4540  0837  304B               	movlw	75
  4541  0838  00FF               	movwf	btemp+1
  4542  0839  087F               	movf	btemp+1,w
  4543  083A  00B6               	movwf	_Temperature^(0+384)
  4544  083B  2840               	goto	i1l2614
  4545  083C                     i1l2612:
  4546  083C  3005               	movlw	5
  4547  083D  00FF               	movwf	btemp+1
  4548  083E  087F               	movf	btemp+1,w
  4549  083F  07B6               	addwf	_Temperature^(0+384),f
  4550  0840                     i1l2614:
  4551                           
  4552                           ;main.c: 125:         EEPROM_Write( 2 , 0xF0 , Temperature );
  4553  0840  30F0               	movlw	240
  4554  0841  00FF               	movwf	btemp+1
  4555  0842  087F               	movf	btemp+1,w
  4556  0843  00F1               	movwf	EEPROM_Write@address
  4557  0844  0836               	movf	_Temperature^(0+384),w
  4558  0845  00FF               	movwf	btemp+1
  4559  0846  087F               	movf	btemp+1,w
  4560  0847  00F2               	movwf	EEPROM_Write@Data
  4561  0848  3002               	movlw	2
  4562  0849  160A  118A  26E7  120A  158A  	fcall	_EEPROM_Write
  4563  084E                     i1l2616:
  4564                           
  4565                           ;main.c: 126:         INT2=Sec1=Sec5=0;
  4566  084E  1683               	bsf	3,5	;RP0=1, select bank1
  4567  084F  1303               	bcf	3,6	;RP1=0, select bank1
  4568  0850  01CA               	clrf	_Sec5^(0+128)
  4569  0851  01CB               	clrf	(_Sec5+1)^(0+128)
  4570  0852  01CC               	clrf	_Sec1^(0+128)
  4571  0853  01CD               	clrf	(_Sec1+1)^(0+128)
  4572  0854  1003               	clrc
  4573  0855  3000               	movlw	0
  4574  0856  1803               	btfsc	3,0
  4575  0857  3001               	movlw	1
  4576  0858  00D1               	movwf	_INT2^(0+128)
  4577                           
  4578                           ;main.c: 127:         }
  4579  0859  285D               	goto	i1l88
  4580  085A                     i1l84:	
  4581                           ;main.c: 128:         else
  4582                           
  4583                           
  4584                           ;main.c: 129:         {;main.c: 130:             Setting_Mode=1;
  4585  085A  01D0               	clrf	_Setting_Mode^(0+128)
  4586  085B  0AD0               	incf	_Setting_Mode^(0+128),f
  4587  085C  284E               	goto	i1l2616
  4588  085D                     i1l88:
  4589  085D  0008               	return
  4590  085E                     __end_of_increase_Temp:
  4591                           
  4592                           	psect	text23
  4593  17CC                     __ptext23:	
  4594 ;; *************** function _decrease_Temp *****************
  4595 ;; Defined at:
  4596 ;;		line 102 in file "main.c"
  4597 ;; Parameters:    Size  Location     Type
  4598 ;;		None
  4599 ;; Auto vars:     Size  Location     Type
  4600 ;;		None
  4601 ;; Return value:  Size  Location     Type
  4602 ;;                  1    wreg      void 
  4603 ;; Registers used:
  4604 ;;		wreg, status,2, status,0, btemp+1, pclath, cstack
  4605 ;; Tracked objects:
  4606 ;;		On entry : 0/0
  4607 ;;		On exit  : 0/0
  4608 ;;		Unchanged: 0/0
  4609 ;; Data sizes:     COMMON   BANK0   BANK1   BANK3   BANK2
  4610 ;;      Params:         0       0       0       0       0
  4611 ;;      Locals:         0       0       0       0       0
  4612 ;;      Temps:          0       0       0       0       0
  4613 ;;      Totals:         0       0       0       0       0
  4614 ;;Total ram usage:        0 bytes
  4615 ;; Hardware stack levels used:    1
  4616 ;; Hardware stack levels required when called:    3
  4617 ;; This function calls:
  4618 ;;		_EEPROM_Write
  4619 ;; This function is called by:
  4620 ;;		_ISR_CallBack
  4621 ;; This function uses a non-reentrant model
  4622 ;;
  4623                           
  4624                           
  4625                           ;psect for function _decrease_Temp
  4626  17CC                     _decrease_Temp:
  4627  17CC                     i1l2592:	
  4628                           ;incstack = 0
  4629 ;; hardware stack exceeded
  4630                           ; Regs used in _decrease_Temp: [wreg+status,2+status,0+btemp+1+pclath+cstack]
  4631                           
  4632                           
  4633                           ;main.c: 104:     if(Setting_Mode==1)
  4634  17CC  1683               	bsf	3,5	;RP0=1, select bank1
  4635  17CD  1303               	bcf	3,6	;RP1=0, select bank1
  4636  17CE  0350               	decf	_Setting_Mode^(0+128),w
  4637  17CF  1D03               	btfss	3,2
  4638  17D0  2FD2               	goto	u347_21
  4639  17D1  2FD3               	goto	u347_20
  4640  17D2                     u347_21:
  4641  17D2  2FFC               	goto	i1l77
  4642  17D3                     u347_20:
  4643  17D3                     i1l2594:
  4644                           
  4645                           ;main.c: 105:         {;main.c: 106:         if(Temperature<=35) {Temperature=35;}
  4646  17D3  3024               	movlw	36
  4647  17D4  1683               	bsf	3,5	;RP0=1, select bank3
  4648  17D5  1703               	bsf	3,6	;RP1=1, select bank3
  4649  17D6  0236               	subwf	_Temperature^(0+384),w
  4650  17D7  1803               	skipnc
  4651  17D8  2FDA               	goto	u348_21
  4652  17D9  2FDB               	goto	u348_20
  4653  17DA                     u348_21:
  4654  17DA  2FE0               	goto	i1l2598
  4655  17DB                     u348_20:
  4656  17DB                     i1l2596:
  4657  17DB  3023               	movlw	35
  4658  17DC  00FF               	movwf	btemp+1
  4659  17DD  087F               	movf	btemp+1,w
  4660  17DE  00B6               	movwf	_Temperature^(0+384)
  4661  17DF  2FE2               	goto	i1l2600
  4662  17E0                     i1l2598:
  4663  17E0  3005               	movlw	5
  4664  17E1  02B6               	subwf	_Temperature^(0+384),f
  4665  17E2                     i1l2600:
  4666                           
  4667                           ;main.c: 108:         EEPROM_Write( 2 , 0xF0 , Temperature );
  4668  17E2  30F0               	movlw	240
  4669  17E3  00FF               	movwf	btemp+1
  4670  17E4  087F               	movf	btemp+1,w
  4671  17E5  00F1               	movwf	EEPROM_Write@address
  4672  17E6  0836               	movf	_Temperature^(0+384),w
  4673  17E7  00FF               	movwf	btemp+1
  4674  17E8  087F               	movf	btemp+1,w
  4675  17E9  00F2               	movwf	EEPROM_Write@Data
  4676  17EA  3002               	movlw	2
  4677  17EB  160A  118A  26E7  160A  118A  	fcall	_EEPROM_Write
  4678  17F0                     i1l2602:
  4679                           
  4680                           ;main.c: 109:         INT1=Sec1=Sec5=0;
  4681  17F0  1683               	bsf	3,5	;RP0=1, select bank1
  4682  17F1  1303               	bcf	3,6	;RP1=0, select bank1
  4683  17F2  01CA               	clrf	_Sec5^(0+128)
  4684  17F3  01CB               	clrf	(_Sec5+1)^(0+128)
  4685  17F4  01CC               	clrf	_Sec1^(0+128)
  4686  17F5  01CD               	clrf	(_Sec1+1)^(0+128)
  4687  17F6  1003               	clrc
  4688  17F7  3000               	movlw	0
  4689  17F8  1803               	btfsc	3,0
  4690  17F9  3001               	movlw	1
  4691  17FA  00D2               	movwf	_INT1^(0+128)
  4692                           
  4693                           ;main.c: 110:         }
  4694  17FB  2FFF               	goto	i1l81
  4695  17FC                     i1l77:	
  4696                           ;main.c: 111:         else
  4697                           
  4698                           
  4699                           ;main.c: 112:         {;main.c: 113:             Setting_Mode=1;
  4700  17FC  01D0               	clrf	_Setting_Mode^(0+128)
  4701  17FD  0AD0               	incf	_Setting_Mode^(0+128),f
  4702  17FE  2FF0               	goto	i1l2602
  4703  17FF                     i1l81:
  4704  17FF  0008               	return
  4705  1800                     __end_of_decrease_Temp:
  4706                           
  4707                           	psect	text24
  4708  16E7                     __ptext24:	
  4709 ;; *************** function _EEPROM_Write *****************
  4710 ;; Defined at:
  4711 ;;		line 19 in file "EX_EEPROM.c"
  4712 ;; Parameters:    Size  Location     Type
  4713 ;;  page            1    wreg     unsigned char 
  4714 ;;  address         1    1[COMMON] unsigned char 
  4715 ;;  Data            1    2[COMMON] unsigned char 
  4716 ;; Auto vars:     Size  Location     Type
  4717 ;;  page            1    3[COMMON] unsigned char 
  4718 ;; Return value:  Size  Location     Type
  4719 ;;                  1    wreg      void 
  4720 ;; Registers used:
  4721 ;;		wreg, status,2, status,0, pclath, cstack
  4722 ;; Tracked objects:
  4723 ;;		On entry : 0/0
  4724 ;;		On exit  : 0/0
  4725 ;;		Unchanged: 0/0
  4726 ;; Data sizes:     COMMON   BANK0   BANK1   BANK3   BANK2
  4727 ;;      Params:         2       0       0       0       0
  4728 ;;      Locals:         1       0       0       0       0
  4729 ;;      Temps:          0       0       0       0       0
  4730 ;;      Totals:         3       0       0       0       0
  4731 ;;Total ram usage:        3 bytes
  4732 ;; Hardware stack levels used:    1
  4733 ;; Hardware stack levels required when called:    2
  4734 ;; This function calls:
  4735 ;;		i1_I2C_Start
  4736 ;;		i1_I2C_Stop
  4737 ;;		i1_I2C_Write_Address
  4738 ;;		i1_I2C_Write_Data
  4739 ;; This function is called by:
  4740 ;;		_decrease_Temp
  4741 ;;		_increase_Temp
  4742 ;; This function uses a non-reentrant model
  4743 ;;
  4744                           
  4745                           
  4746                           ;psect for function _EEPROM_Write
  4747  16E7                     _EEPROM_Write:
  4748                           
  4749                           ;incstack = 0
  4750 ;; hardware stack exceeded
  4751                           ; Regs used in _EEPROM_Write: [wreg+status,2+status,0+pclath+cstack]
  4752                           ;EEPROM_Write@page stored from wreg
  4753  16E7  00F3               	movwf	EEPROM_Write@page
  4754  16E8                     i1l2230:
  4755                           
  4756                           ;EX_EEPROM.c: 19: void EEPROM_Write(unsigned char page,unsigned char address, unsigned c
      +                          har Data);EX_EEPROM.c: 20: {;EX_EEPROM.c: 21:         I2C_Start();
  4757  16E8  160A  118A  25C6  160A  118A  	fcall	i1_I2C_Start
  4758                           
  4759                           ;EX_EEPROM.c: 22:         I2C_Write_Address(0xA0 +page);
  4760  16ED  0873               	movf	EEPROM_Write@page,w
  4761  16EE  3EA0               	addlw	160
  4762  16EF  160A  118A  2631  160A  118A  	fcall	i1_I2C_Write_Address
  4763                           
  4764                           ;EX_EEPROM.c: 23:         I2C_Write_Data(address);
  4765  16F4  0871               	movf	EEPROM_Write@address,w
  4766  16F5  160A  118A  26B1  160A  118A  	fcall	i1_I2C_Write_Data
  4767                           
  4768                           ;EX_EEPROM.c: 24:         I2C_Write_Data(Data);
  4769  16FA  0872               	movf	EEPROM_Write@Data,w
  4770  16FB  160A  118A  26B1  160A  118A  	fcall	i1_I2C_Write_Data
  4771                           
  4772                           ;EX_EEPROM.c: 25:         I2C_Stop();
  4773  1700  160A  118A  2615  160A  118A  	fcall	i1_I2C_Stop
  4774  1705                     i1l267:
  4775  1705  0008               	return
  4776  1706                     __end_of_EEPROM_Write:
  4777                           
  4778                           	psect	text25
  4779  16B1                     __ptext25:	
  4780 ;; *************** function i1_I2C_Write_Data *****************
  4781 ;; Defined at:
  4782 ;;		line 60 in file "I2C.c"
  4783 ;; Parameters:    Size  Location     Type
  4784 ;;  Data            1    wreg     unsigned char 
  4785 ;; Auto vars:     Size  Location     Type
  4786 ;;  Data            1    0[COMMON] unsigned char 
  4787 ;; Return value:  Size  Location     Type
  4788 ;;                  1    wreg      void 
  4789 ;; Registers used:
  4790 ;;		wreg, status,2, status,0, pclath, cstack
  4791 ;; Tracked objects:
  4792 ;;		On entry : 0/0
  4793 ;;		On exit  : 0/0
  4794 ;;		Unchanged: 0/0
  4795 ;; Data sizes:     COMMON   BANK0   BANK1   BANK3   BANK2
  4796 ;;      Params:         0       0       0       0       0
  4797 ;;      Locals:         1       0       0       0       0
  4798 ;;      Temps:          0       0       0       0       0
  4799 ;;      Totals:         1       0       0       0       0
  4800 ;;Total ram usage:        1 bytes
  4801 ;; Hardware stack levels used:    1
  4802 ;; Hardware stack levels required when called:    1
  4803 ;; This function calls:
  4804 ;;		i1_Wait_IdleState
  4805 ;; This function is called by:
  4806 ;;		_EEPROM_Write
  4807 ;; This function uses a non-reentrant model
  4808 ;;
  4809                           
  4810                           
  4811                           ;psect for function i1_I2C_Write_Data
  4812  16B1                     i1_I2C_Write_Data:
  4813                           
  4814                           ;incstack = 0
  4815 ;; hardware stack exceeded
  4816                           ; Regs used in i1_I2C_Write_Data: [wreg+status,2+status,0+pclath+cstack]
  4817                           ;i1I2C_Write_Data@Data stored from wreg
  4818  16B1  00F0               	movwf	i1I2C_Write_Data@Data
  4819  16B2                     i1l2224:
  4820                           
  4821                           ;I2C.c: 60: void I2C_Write_Data(unsigned char Data);I2C.c: 61: {;I2C.c: 62:     Wait_Idl
      +                          eState();
  4822  16B2  160A  118A  25ED  160A  118A  	fcall	i1_Wait_IdleState
  4823  16B7                     i1l233:	
  4824                           ;I2C.c: 63:     while(ACKSTAT);
  4825                           
  4826  16B7  1683               	bsf	3,5	;RP0=1, select bank1
  4827  16B8  1303               	bcf	3,6	;RP1=0, select bank1
  4828  16B9  1B11               	btfsc	17,6	;volatile
  4829  16BA  2EBC               	goto	u262_21
  4830  16BB  2EBD               	goto	u262_20
  4831  16BC                     u262_21:
  4832  16BC  2EB7               	goto	i1l233
  4833  16BD                     u262_20:
  4834  16BD                     i1l2226:
  4835                           
  4836                           ;I2C.c: 64:     SSPBUF = Data;
  4837  16BD  0870               	movf	i1I2C_Write_Data@Data,w
  4838  16BE  1283               	bcf	3,5	;RP0=0, select bank0
  4839  16BF  1303               	bcf	3,6	;RP1=0, select bank0
  4840  16C0  0093               	movwf	19	;volatile
  4841  16C1                     i1l236:	
  4842                           ;I2C.c: 65:     while(!SSPIF);
  4843                           
  4844  16C1  1D8C               	btfss	12,3	;volatile
  4845  16C2  2EC4               	goto	u263_21
  4846  16C3  2EC5               	goto	u263_20
  4847  16C4                     u263_21:
  4848  16C4  2EC1               	goto	i1l236
  4849  16C5                     u263_20:
  4850  16C5                     i1l238:
  4851                           
  4852                           ;I2C.c: 66:     SSPIF = 0;
  4853  16C5  118C               	bcf	12,3	;volatile
  4854  16C6                     i1l2228:
  4855                           
  4856                           ;I2C.c: 67:     Wait_IdleState();
  4857  16C6  160A  118A  25ED  160A  118A  	fcall	i1_Wait_IdleState
  4858  16CB                     i1l239:
  4859  16CB  0008               	return
  4860  16CC                     __end_ofi1_I2C_Write_Data:
  4861                           
  4862                           	psect	text26
  4863  1631                     __ptext26:	
  4864 ;; *************** function i1_I2C_Write_Address *****************
  4865 ;; Defined at:
  4866 ;;		line 54 in file "I2C.c"
  4867 ;; Parameters:    Size  Location     Type
  4868 ;;  Address         1    wreg     unsigned char 
  4869 ;; Auto vars:     Size  Location     Type
  4870 ;;  Address         1    0[COMMON] unsigned char 
  4871 ;; Return value:  Size  Location     Type
  4872 ;;                  1    wreg      void 
  4873 ;; Registers used:
  4874 ;;		wreg, status,2, status,0, pclath, cstack
  4875 ;; Tracked objects:
  4876 ;;		On entry : 0/0
  4877 ;;		On exit  : 0/0
  4878 ;;		Unchanged: 0/0
  4879 ;; Data sizes:     COMMON   BANK0   BANK1   BANK3   BANK2
  4880 ;;      Params:         0       0       0       0       0
  4881 ;;      Locals:         1       0       0       0       0
  4882 ;;      Temps:          0       0       0       0       0
  4883 ;;      Totals:         1       0       0       0       0
  4884 ;;Total ram usage:        1 bytes
  4885 ;; Hardware stack levels used:    1
  4886 ;; Hardware stack levels required when called:    1
  4887 ;; This function calls:
  4888 ;;		i1_Wait_IdleState
  4889 ;; This function is called by:
  4890 ;;		_EEPROM_Write
  4891 ;; This function uses a non-reentrant model
  4892 ;;
  4893                           
  4894                           
  4895                           ;psect for function i1_I2C_Write_Address
  4896  1631                     i1_I2C_Write_Address:
  4897                           
  4898                           ;incstack = 0
  4899 ;; hardware stack exceeded
  4900                           ; Regs used in i1_I2C_Write_Address: [wreg+status,2+status,0+pclath+cstack]
  4901                           ;i1I2C_Write_Address@Address stored from wreg
  4902  1631  00F0               	movwf	i1I2C_Write_Address@Address
  4903  1632                     i1l2218:
  4904                           
  4905                           ;I2C.c: 54: void I2C_Write_Address(unsigned char Address);I2C.c: 55: {;I2C.c: 56:     Wa
      +                          it_IdleState();
  4906  1632  160A  118A  25ED  160A  118A  	fcall	i1_Wait_IdleState
  4907  1637                     i1l2220:
  4908                           
  4909                           ;I2C.c: 57:     SSPBUF=Address;
  4910  1637  0870               	movf	i1I2C_Write_Address@Address,w
  4911  1638  1283               	bcf	3,5	;RP0=0, select bank0
  4912  1639  1303               	bcf	3,6	;RP1=0, select bank0
  4913  163A  0093               	movwf	19	;volatile
  4914  163B                     i1l2222:
  4915                           
  4916                           ;I2C.c: 58:     Wait_IdleState();
  4917  163B  160A  118A  25ED  160A  118A  	fcall	i1_Wait_IdleState
  4918  1640                     i1l230:
  4919  1640  0008               	return
  4920  1641                     __end_ofi1_I2C_Write_Address:
  4921                           
  4922                           	psect	text27
  4923  1615                     __ptext27:	
  4924 ;; *************** function i1_I2C_Stop *****************
  4925 ;; Defined at:
  4926 ;;		line 34 in file "I2C.c"
  4927 ;; Parameters:    Size  Location     Type
  4928 ;;		None
  4929 ;; Auto vars:     Size  Location     Type
  4930 ;;		None
  4931 ;; Return value:  Size  Location     Type
  4932 ;;                  1    wreg      void 
  4933 ;; Registers used:
  4934 ;;		wreg, status,2, status,0, pclath, cstack
  4935 ;; Tracked objects:
  4936 ;;		On entry : 0/0
  4937 ;;		On exit  : 0/0
  4938 ;;		Unchanged: 0/0
  4939 ;; Data sizes:     COMMON   BANK0   BANK1   BANK3   BANK2
  4940 ;;      Params:         0       0       0       0       0
  4941 ;;      Locals:         0       0       0       0       0
  4942 ;;      Temps:          0       0       0       0       0
  4943 ;;      Totals:         0       0       0       0       0
  4944 ;;Total ram usage:        0 bytes
  4945 ;; Hardware stack levels used:    1
  4946 ;; Hardware stack levels required when called:    1
  4947 ;; This function calls:
  4948 ;;		i1_Wait_IdleState
  4949 ;; This function is called by:
  4950 ;;		_EEPROM_Write
  4951 ;; This function uses a non-reentrant model
  4952 ;;
  4953                           
  4954                           
  4955                           ;psect for function i1_I2C_Stop
  4956  1615                     i1_I2C_Stop:
  4957  1615                     i1l2214:	
  4958                           ;incstack = 0
  4959 ;; hardware stack exceeded
  4960                           ; Regs used in i1_I2C_Stop: [wreg+status,2+status,0+pclath+cstack]
  4961                           
  4962                           
  4963                           ;I2C.c: 36:     Wait_IdleState();
  4964  1615  160A  118A  25ED  160A  118A  	fcall	i1_Wait_IdleState
  4965  161A                     i1l2216:
  4966                           
  4967                           ;I2C.c: 37:     PEN=1;
  4968  161A  1683               	bsf	3,5	;RP0=1, select bank1
  4969  161B  1303               	bcf	3,6	;RP1=0, select bank1
  4970  161C  1511               	bsf	17,2	;volatile
  4971                           
  4972                           ;I2C.c: 38:     Wait_IdleState();
  4973  161D  160A  118A  25ED  160A  118A  	fcall	i1_Wait_IdleState
  4974  1622                     i1l221:
  4975  1622  0008               	return
  4976  1623                     __end_ofi1_I2C_Stop:
  4977                           
  4978                           	psect	text28
  4979  15C6                     __ptext28:	
  4980 ;; *************** function i1_I2C_Start *****************
  4981 ;; Defined at:
  4982 ;;		line 24 in file "I2C.c"
  4983 ;; Parameters:    Size  Location     Type
  4984 ;;		None
  4985 ;; Auto vars:     Size  Location     Type
  4986 ;;		None
  4987 ;; Return value:  Size  Location     Type
  4988 ;;                  1    wreg      void 
  4989 ;; Registers used:
  4990 ;;		wreg, status,2, status,0, pclath, cstack
  4991 ;; Tracked objects:
  4992 ;;		On entry : 0/0
  4993 ;;		On exit  : 0/0
  4994 ;;		Unchanged: 0/0
  4995 ;; Data sizes:     COMMON   BANK0   BANK1   BANK3   BANK2
  4996 ;;      Params:         0       0       0       0       0
  4997 ;;      Locals:         0       0       0       0       0
  4998 ;;      Temps:          0       0       0       0       0
  4999 ;;      Totals:         0       0       0       0       0
  5000 ;;Total ram usage:        0 bytes
  5001 ;; Hardware stack levels used:    1
  5002 ;; Hardware stack levels required when called:    1
  5003 ;; This function calls:
  5004 ;;		i1_Wait_IdleState
  5005 ;; This function is called by:
  5006 ;;		_EEPROM_Write
  5007 ;; This function uses a non-reentrant model
  5008 ;;
  5009                           
  5010                           
  5011                           ;psect for function i1_I2C_Start
  5012  15C6                     i1_I2C_Start:
  5013  15C6                     i1l2210:	
  5014                           ;incstack = 0
  5015 ;; hardware stack exceeded
  5016                           ; Regs used in i1_I2C_Start: [wreg+status,2+status,0+pclath+cstack]
  5017                           
  5018                           
  5019                           ;I2C.c: 26:     Wait_IdleState();
  5020  15C6  160A  118A  25ED  160A  118A  	fcall	i1_Wait_IdleState
  5021  15CB                     i1l2212:
  5022                           
  5023                           ;I2C.c: 27:     SEN=1;
  5024  15CB  1683               	bsf	3,5	;RP0=1, select bank1
  5025  15CC  1303               	bcf	3,6	;RP1=0, select bank1
  5026  15CD  1411               	bsf	17,0	;volatile
  5027  15CE                     i1l215:
  5028  15CE  0008               	return
  5029  15CF                     __end_ofi1_I2C_Start:
  5030                           
  5031                           	psect	text29
  5032  15ED                     __ptext29:	
  5033 ;; *************** function i1_Wait_IdleState *****************
  5034 ;; Defined at:
  5035 ;;		line 11 in file "I2C.c"
  5036 ;; Parameters:    Size  Location     Type
  5037 ;;		None
  5038 ;; Auto vars:     Size  Location     Type
  5039 ;;		None
  5040 ;; Return value:  Size  Location     Type
  5041 ;;                  1    wreg      void 
  5042 ;; Registers used:
  5043 ;;		wreg, status,2
  5044 ;; Tracked objects:
  5045 ;;		On entry : 0/0
  5046 ;;		On exit  : 0/0
  5047 ;;		Unchanged: 0/0
  5048 ;; Data sizes:     COMMON   BANK0   BANK1   BANK3   BANK2
  5049 ;;      Params:         0       0       0       0       0
  5050 ;;      Locals:         0       0       0       0       0
  5051 ;;      Temps:          0       0       0       0       0
  5052 ;;      Totals:         0       0       0       0       0
  5053 ;;Total ram usage:        0 bytes
  5054 ;; Hardware stack levels used:    1
  5055 ;; This function calls:
  5056 ;;		Nothing
  5057 ;; This function is called by:
  5058 ;;		i1_I2C_Start
  5059 ;;		i1_I2C_Stop
  5060 ;;		i1_I2C_Write_Address
  5061 ;;		i1_I2C_Write_Data
  5062 ;; This function uses a non-reentrant model
  5063 ;;
  5064                           
  5065                           
  5066                           ;psect for function i1_Wait_IdleState
  5067  15ED                     i1_Wait_IdleState:
  5068  15ED                     i1l2108:	
  5069                           ;incstack = 0
  5070 ;; hardware stack exceeded
  5071                           ; Regs used in i1_Wait_IdleState: [wreg+status,2]
  5072                           
  5073  15ED                     i1l2110:	
  5074                           ;I2C.c: 13:     while( (SSPCON2&0b00011111) || (SSPSTAT&0b00000100) );
  5075                           
  5076  15ED  1683               	bsf	3,5	;RP0=1, select bank1
  5077  15EE  1303               	bcf	3,6	;RP1=0, select bank1
  5078  15EF  0811               	movf	17,w	;volatile
  5079  15F0  391F               	andlw	31
  5080  15F1  1D03               	btfss	3,2
  5081  15F2  2DF4               	goto	u238_21
  5082  15F3  2DF5               	goto	u238_20
  5083  15F4                     u238_21:
  5084  15F4  2DED               	goto	i1l2110
  5085  15F5                     u238_20:
  5086  15F5                     i1l2112:
  5087  15F5  1914               	btfsc	20,2	;volatile
  5088  15F6  2DF8               	goto	u239_21
  5089  15F7  2DF9               	goto	u239_20
  5090  15F8                     u239_21:
  5091  15F8  2DED               	goto	i1l2110
  5092  15F9                     u239_20:
  5093  15F9                     i1l209:
  5094  15F9  0008               	return
  5095  15FA                     __end_ofi1_Wait_IdleState:
  5096                           
  5097                           	psect	text30
  5098  0A19                     __ptext30:	
  5099 ;; *************** function ___fltol *****************
  5100 ;; Defined at:
  5101 ;;		line 43 in file "C:\Program Files\Microchip\xc8\v2.20\pic\sources\c90\common\fltol.c"
  5102 ;; Parameters:    Size  Location     Type
  5103 ;;  f1              4    0[COMMON] void 
  5104 ;; Auto vars:     Size  Location     Type
  5105 ;;  exp1            1    9[COMMON] unsigned char 
  5106 ;;  sign1           1    8[COMMON] unsigned char 
  5107 ;; Return value:  Size  Location     Type
  5108 ;;                  4    0[COMMON] long 
  5109 ;; Registers used:
  5110 ;;		wreg, status,2, status,0, btemp+1
  5111 ;; Tracked objects:
  5112 ;;		On entry : 0/0
  5113 ;;		On exit  : 0/0
  5114 ;;		Unchanged: 0/0
  5115 ;; Data sizes:     COMMON   BANK0   BANK1   BANK3   BANK2
  5116 ;;      Params:         4       0       0       0       0
  5117 ;;      Locals:         2       0       0       0       0
  5118 ;;      Temps:          4       0       0       0       0
  5119 ;;      Totals:        10       0       0       0       0
  5120 ;;Total ram usage:       10 bytes
  5121 ;; Hardware stack levels used:    1
  5122 ;; This function calls:
  5123 ;;		Nothing
  5124 ;; This function is called by:
  5125 ;;		_ISR_CallBack
  5126 ;; This function uses a non-reentrant model
  5127 ;;
  5128                           
  5129                           
  5130                           ;psect for function ___fltol
  5131  0A19                     ___fltol:
  5132  0A19                     i1l2720:	
  5133                           ;incstack = 0
  5134                           ; Regs used in ___fltol: [wreg+status,2+status,0+btemp+1]
  5135                           
  5136  0A19  1003               	clrc
  5137  0A1A  0D72               	rlf	___fltol@f1+2,w
  5138  0A1B  0D73               	rlf	___fltol@f1+3,w
  5139  0A1C  00FF               	movwf	btemp+1
  5140  0A1D  087F               	movf	btemp+1,w
  5141  0A1E  00F9               	movwf	___fltol@exp1
  5142  0A1F  0879               	movf	___fltol@exp1,w
  5143  0A20  1D03               	btfss	3,2
  5144  0A21  2A23               	goto	u370_21
  5145  0A22  2A24               	goto	u370_20
  5146  0A23                     u370_21:
  5147  0A23  2A2D               	goto	i1l2726
  5148  0A24                     u370_20:
  5149  0A24                     i1l2722:
  5150  0A24  3000               	movlw	0
  5151  0A25  00F3               	movwf	?___fltol+3
  5152  0A26  3000               	movlw	0
  5153  0A27  00F2               	movwf	?___fltol+2
  5154  0A28  3000               	movlw	0
  5155  0A29  00F1               	movwf	?___fltol+1
  5156  0A2A  3000               	movlw	0
  5157  0A2B  00F0               	movwf	?___fltol
  5158  0A2C  2A92               	goto	i1l640
  5159  0A2D                     i1l2726:
  5160  0A2D  0870               	movf	___fltol@f1,w
  5161  0A2E  00F4               	movwf	??___fltol
  5162  0A2F  0871               	movf	___fltol@f1+1,w
  5163  0A30  00F5               	movwf	??___fltol+1
  5164  0A31  0872               	movf	___fltol@f1+2,w
  5165  0A32  00F6               	movwf	??___fltol+2
  5166  0A33  0873               	movf	___fltol@f1+3,w
  5167  0A34  00F7               	movwf	??___fltol+3
  5168  0A35  301F               	movlw	31
  5169  0A36                     u371_25:
  5170  0A36  1003               	clrc
  5171  0A37  0CF7               	rrf	??___fltol+3,f
  5172  0A38  0CF6               	rrf	??___fltol+2,f
  5173  0A39  0CF5               	rrf	??___fltol+1,f
  5174  0A3A  0CF4               	rrf	??___fltol,f
  5175  0A3B                     u371_20:
  5176  0A3B  3EFF               	addlw	-1
  5177  0A3C  1D03               	skipz
  5178  0A3D  2A36               	goto	u371_25
  5179  0A3E  0874               	movf	??___fltol,w
  5180  0A3F  00FF               	movwf	btemp+1
  5181  0A40  087F               	movf	btemp+1,w
  5182  0A41  00F8               	movwf	___fltol@sign1
  5183  0A42                     i1l2728:
  5184  0A42  17F2               	bsf	___fltol@f1+2,7
  5185  0A43                     i1l2730:
  5186  0A43  30FF               	movlw	255
  5187  0A44  05F0               	andwf	___fltol@f1,f
  5188  0A45  30FF               	movlw	255
  5189  0A46  05F1               	andwf	___fltol@f1+1,f
  5190  0A47  30FF               	movlw	255
  5191  0A48  05F2               	andwf	___fltol@f1+2,f
  5192  0A49  3000               	movlw	0
  5193  0A4A  05F3               	andwf	___fltol@f1+3,f
  5194  0A4B                     i1l2732:
  5195  0A4B  3096               	movlw	150
  5196  0A4C  02F9               	subwf	___fltol@exp1,f
  5197  0A4D                     i1l2734:
  5198  0A4D  1FF9               	btfss	___fltol@exp1,7
  5199  0A4E  2A50               	goto	u372_21
  5200  0A4F  2A51               	goto	u372_20
  5201  0A50                     u372_21:
  5202  0A50  2A6B               	goto	i1l2746
  5203  0A51                     u372_20:
  5204  0A51                     i1l2736:
  5205  0A51  0879               	movf	___fltol@exp1,w
  5206  0A52  3A80               	xorlw	128
  5207  0A53  3E97               	addlw	151
  5208  0A54  1803               	skipnc
  5209  0A55  2A57               	goto	u373_21
  5210  0A56  2A58               	goto	u373_20
  5211  0A57                     u373_21:
  5212  0A57  2A59               	goto	i1l2742
  5213  0A58                     u373_20:
  5214  0A58  2A24               	goto	i1l2722
  5215  0A59                     i1l2742:
  5216  0A59  3001               	movlw	1
  5217  0A5A                     u374_25:
  5218  0A5A  1003               	clrc
  5219  0A5B  0CF3               	rrf	___fltol@f1+3,f
  5220  0A5C  0CF2               	rrf	___fltol@f1+2,f
  5221  0A5D  0CF1               	rrf	___fltol@f1+1,f
  5222  0A5E  0CF0               	rrf	___fltol@f1,f
  5223  0A5F  3EFF               	addlw	-1
  5224  0A60  1D03               	skipz
  5225  0A61  2A5A               	goto	u374_25
  5226  0A62                     i1l2744:
  5227  0A62  3001               	movlw	1
  5228  0A63  00FF               	movwf	btemp+1
  5229  0A64  087F               	movf	btemp+1,w
  5230  0A65  07F9               	addwf	___fltol@exp1,f
  5231  0A66  1D03               	btfss	3,2
  5232  0A67  2A69               	goto	u375_21
  5233  0A68  2A6A               	goto	u375_20
  5234  0A69                     u375_21:
  5235  0A69  2A59               	goto	i1l2742
  5236  0A6A                     u375_20:
  5237  0A6A  2A82               	goto	i1l2754
  5238  0A6B                     i1l2746:
  5239  0A6B  3020               	movlw	32
  5240  0A6C  0279               	subwf	___fltol@exp1,w
  5241  0A6D  1C03               	skipc
  5242  0A6E  2A70               	goto	u376_21
  5243  0A6F  2A71               	goto	u376_20
  5244  0A70                     u376_21:
  5245  0A70  2A7D               	goto	i1l647
  5246  0A71                     u376_20:
  5247  0A71  2A24               	goto	i1l2722
  5248  0A72                     i1l2752:
  5249  0A72  3001               	movlw	1
  5250  0A73  00F4               	movwf	??___fltol
  5251  0A74                     u377_25:
  5252  0A74  1003               	clrc
  5253  0A75  0DF0               	rlf	___fltol@f1,f
  5254  0A76  0DF1               	rlf	___fltol@f1+1,f
  5255  0A77  0DF2               	rlf	___fltol@f1+2,f
  5256  0A78  0DF3               	rlf	___fltol@f1+3,f
  5257  0A79  0BF4               	decfsz	??___fltol,f
  5258  0A7A  2A74               	goto	u377_25
  5259  0A7B  3001               	movlw	1
  5260  0A7C  02F9               	subwf	___fltol@exp1,f
  5261  0A7D                     i1l647:
  5262  0A7D  0879               	movf	___fltol@exp1,w
  5263  0A7E  1D03               	btfss	3,2
  5264  0A7F  2A81               	goto	u378_21
  5265  0A80  2A82               	goto	u378_20
  5266  0A81                     u378_21:
  5267  0A81  2A72               	goto	i1l2752
  5268  0A82                     u378_20:
  5269  0A82                     i1l2754:
  5270  0A82  0878               	movf	___fltol@sign1,w
  5271  0A83  1903               	btfsc	3,2
  5272  0A84  2A86               	goto	u379_21
  5273  0A85  2A87               	goto	u379_20
  5274  0A86                     u379_21:
  5275  0A86  2A92               	goto	i1l650
  5276  0A87                     u379_20:
  5277  0A87                     i1l2756:
  5278  0A87  09F0               	comf	___fltol@f1,f
  5279  0A88  09F1               	comf	___fltol@f1+1,f
  5280  0A89  09F2               	comf	___fltol@f1+2,f
  5281  0A8A  09F3               	comf	___fltol@f1+3,f
  5282  0A8B  0AF0               	incf	___fltol@f1,f
  5283  0A8C  1903               	skipnz
  5284  0A8D  0AF1               	incf	___fltol@f1+1,f
  5285  0A8E  1903               	skipnz
  5286  0A8F  0AF2               	incf	___fltol@f1+2,f
  5287  0A90  1903               	skipnz
  5288  0A91  0AF3               	incf	___fltol@f1+3,f
  5289  0A92                     i1l650:
  5290  0A92                     i1l640:
  5291  0A92  0008               	return
  5292  0A93                     __end_of___fltol:
  5293                           
  5294                           	psect	text31
  5295  03B8                     __ptext31:	
  5296 ;; *************** function ___fladd *****************
  5297 ;; Defined at:
  5298 ;;		line 10 in file "C:\Program Files\Microchip\xc8\v2.20\pic\sources\c90\common\sprcadd.c"
  5299 ;; Parameters:    Size  Location     Type
  5300 ;;  b               4    0[COMMON] long 
  5301 ;;  a               4    4[COMMON] long 
  5302 ;; Auto vars:     Size  Location     Type
  5303 ;;  grs             1   11[COMMON] unsigned char 
  5304 ;;  bexp            1   10[COMMON] unsigned char 
  5305 ;;  aexp            1    9[COMMON] unsigned char 
  5306 ;;  signs           1    8[COMMON] unsigned char 
  5307 ;; Return value:  Size  Location     Type
  5308 ;;                  4    0[COMMON] unsigned char 
  5309 ;; Registers used:
  5310 ;;		wreg, status,2, status,0, btemp+1
  5311 ;; Tracked objects:
  5312 ;;		On entry : 0/0
  5313 ;;		On exit  : 0/0
  5314 ;;		Unchanged: 0/0
  5315 ;; Data sizes:     COMMON   BANK0   BANK1   BANK3   BANK2
  5316 ;;      Params:         8       0       0       0       0
  5317 ;;      Locals:         4       0       0       0       0
  5318 ;;      Temps:          0       8       0       0       0
  5319 ;;      Totals:        12       8       0       0       0
  5320 ;;Total ram usage:       20 bytes
  5321 ;; Hardware stack levels used:    1
  5322 ;; This function calls:
  5323 ;;		Nothing
  5324 ;; This function is called by:
  5325 ;;		_ISR_CallBack
  5326 ;; This function uses a non-reentrant model
  5327 ;;
  5328                           
  5329                           
  5330                           ;psect for function ___fladd
  5331  03B8                     ___fladd:
  5332  03B8                     i1l2758:	
  5333                           ;incstack = 0
  5334                           ; Regs used in ___fladd: [wreg+status,2+status,0+btemp+1]
  5335                           
  5336  03B8  0873               	movf	___fladd@b+3,w
  5337  03B9  3980               	andlw	128
  5338  03BA  00FF               	movwf	btemp+1
  5339  03BB  087F               	movf	btemp+1,w
  5340  03BC  00F8               	movwf	___fladd@signs
  5341  03BD                     i1l2760:
  5342  03BD  0873               	movf	___fladd@b+3,w
  5343  03BE  1283               	bcf	3,5	;RP0=0, select bank0
  5344  03BF  1303               	bcf	3,6	;RP1=0, select bank0
  5345  03C0  00A0               	movwf	??___fladd
  5346  03C1  0720               	addwf	??___fladd,w
  5347  03C2  00FF               	movwf	btemp+1
  5348  03C3  087F               	movf	btemp+1,w
  5349  03C4  00FA               	movwf	___fladd@bexp
  5350  03C5                     i1l2762:
  5351  03C5  1FF2               	btfss	___fladd@b+2,7
  5352  03C6  2BC8               	goto	u380_21
  5353  03C7  2BC9               	goto	u380_20
  5354  03C8                     u380_21:
  5355  03C8  2BCA               	goto	i1l2766
  5356  03C9                     u380_20:
  5357  03C9                     i1l2764:
  5358  03C9  147A               	bsf	___fladd@bexp,0
  5359  03CA                     i1l2766:
  5360  03CA  087A               	movf	___fladd@bexp,w
  5361  03CB  1903               	btfsc	3,2
  5362  03CC  2BCE               	goto	u381_21
  5363  03CD  2BCF               	goto	u381_20
  5364  03CE                     u381_21:
  5365  03CE  2BDF               	goto	i1l2776
  5366  03CF                     u381_20:
  5367  03CF                     i1l2768:
  5368  03CF  0A7A               	incf	___fladd@bexp,w
  5369  03D0  1D03               	btfss	3,2
  5370  03D1  2BD3               	goto	u382_21
  5371  03D2  2BD4               	goto	u382_20
  5372  03D3                     u382_21:
  5373  03D3  2BDC               	goto	i1l2772
  5374  03D4                     u382_20:
  5375  03D4                     i1l2770:
  5376  03D4  3000               	movlw	0
  5377  03D5  00F3               	movwf	___fladd@b+3
  5378  03D6  3000               	movlw	0
  5379  03D7  00F2               	movwf	___fladd@b+2
  5380  03D8  3000               	movlw	0
  5381  03D9  00F1               	movwf	___fladd@b+1
  5382  03DA  3000               	movlw	0
  5383  03DB  00F0               	movwf	___fladd@b
  5384  03DC                     i1l2772:
  5385  03DC  17F2               	bsf	___fladd@b+2,7
  5386  03DD                     i1l2774:
  5387  03DD  01F3               	clrf	___fladd@b+3
  5388  03DE  2BE7               	goto	i1l2778
  5389  03DF                     i1l2776:
  5390  03DF  3000               	movlw	0
  5391  03E0  00F3               	movwf	___fladd@b+3
  5392  03E1  3000               	movlw	0
  5393  03E2  00F2               	movwf	___fladd@b+2
  5394  03E3  3000               	movlw	0
  5395  03E4  00F1               	movwf	___fladd@b+1
  5396  03E5  3000               	movlw	0
  5397  03E6  00F0               	movwf	___fladd@b
  5398  03E7                     i1l2778:
  5399  03E7  0877               	movf	___fladd@a+3,w
  5400  03E8  3980               	andlw	128
  5401  03E9  00FF               	movwf	btemp+1
  5402  03EA  087F               	movf	btemp+1,w
  5403  03EB  00F9               	movwf	___fladd@aexp
  5404  03EC                     i1l2780:
  5405  03EC  0879               	movf	___fladd@aexp,w
  5406  03ED  0678               	xorwf	___fladd@signs,w
  5407  03EE  1903               	skipnz
  5408  03EF  2BF1               	goto	u383_21
  5409  03F0  2BF2               	goto	u383_20
  5410  03F1                     u383_21:
  5411  03F1  2BF3               	goto	i1l2784
  5412  03F2                     u383_20:
  5413  03F2                     i1l2782:
  5414  03F2  1778               	bsf	___fladd@signs,6
  5415  03F3                     i1l2784:
  5416  03F3  0877               	movf	___fladd@a+3,w
  5417  03F4  00A0               	movwf	??___fladd
  5418  03F5  0720               	addwf	??___fladd,w
  5419  03F6  00FF               	movwf	btemp+1
  5420  03F7  087F               	movf	btemp+1,w
  5421  03F8  00F9               	movwf	___fladd@aexp
  5422  03F9                     i1l2786:
  5423  03F9  1FF6               	btfss	___fladd@a+2,7
  5424  03FA  2BFC               	goto	u384_21
  5425  03FB  2BFD               	goto	u384_20
  5426  03FC                     u384_21:
  5427  03FC  2BFE               	goto	i1l2790
  5428  03FD                     u384_20:
  5429  03FD                     i1l2788:
  5430  03FD  1479               	bsf	___fladd@aexp,0
  5431  03FE                     i1l2790:
  5432  03FE  0879               	movf	___fladd@aexp,w
  5433  03FF  1903               	btfsc	3,2
  5434  0400  2C02               	goto	u385_21
  5435  0401  2C03               	goto	u385_20
  5436  0402                     u385_21:
  5437  0402  2C13               	goto	i1l2800
  5438  0403                     u385_20:
  5439  0403                     i1l2792:
  5440  0403  0A79               	incf	___fladd@aexp,w
  5441  0404  1D03               	btfss	3,2
  5442  0405  2C07               	goto	u386_21
  5443  0406  2C08               	goto	u386_20
  5444  0407                     u386_21:
  5445  0407  2C10               	goto	i1l2796
  5446  0408                     u386_20:
  5447  0408                     i1l2794:
  5448  0408  3000               	movlw	0
  5449  0409  00F7               	movwf	___fladd@a+3
  5450  040A  3000               	movlw	0
  5451  040B  00F6               	movwf	___fladd@a+2
  5452  040C  3000               	movlw	0
  5453  040D  00F5               	movwf	___fladd@a+1
  5454  040E  3000               	movlw	0
  5455  040F  00F4               	movwf	___fladd@a
  5456  0410                     i1l2796:
  5457  0410  17F6               	bsf	___fladd@a+2,7
  5458  0411                     i1l2798:
  5459  0411  01F7               	clrf	___fladd@a+3
  5460  0412  2C1B               	goto	i1l747
  5461  0413                     i1l2800:
  5462  0413  3000               	movlw	0
  5463  0414  00F7               	movwf	___fladd@a+3
  5464  0415  3000               	movlw	0
  5465  0416  00F6               	movwf	___fladd@a+2
  5466  0417  3000               	movlw	0
  5467  0418  00F5               	movwf	___fladd@a+1
  5468  0419  3000               	movlw	0
  5469  041A  00F4               	movwf	___fladd@a
  5470  041B                     i1l747:
  5471  041B  087A               	movf	___fladd@bexp,w
  5472  041C  0279               	subwf	___fladd@aexp,w
  5473  041D  1803               	skipnc
  5474  041E  2C20               	goto	u387_21
  5475  041F  2C21               	goto	u387_20
  5476  0420                     u387_21:
  5477  0420  2C65               	goto	i1l2836
  5478  0421                     u387_20:
  5479  0421                     i1l2802:
  5480  0421  1F78               	btfss	___fladd@signs,6
  5481  0422  2C24               	goto	u388_21
  5482  0423  2C25               	goto	u388_20
  5483  0424                     u388_21:
  5484  0424  2C29               	goto	i1l2806
  5485  0425                     u388_20:
  5486  0425                     i1l2804:
  5487  0425  3080               	movlw	128
  5488  0426  00FF               	movwf	btemp+1
  5489  0427  087F               	movf	btemp+1,w
  5490  0428  06F8               	xorwf	___fladd@signs,f
  5491  0429                     i1l2806:
  5492  0429  087A               	movf	___fladd@bexp,w
  5493  042A  00FF               	movwf	btemp+1
  5494  042B  087F               	movf	btemp+1,w
  5495  042C  00FB               	movwf	___fladd@grs
  5496  042D                     i1l2808:
  5497  042D  0879               	movf	___fladd@aexp,w
  5498  042E  00FF               	movwf	btemp+1
  5499  042F  087F               	movf	btemp+1,w
  5500  0430  00FA               	movwf	___fladd@bexp
  5501  0431                     i1l2810:
  5502  0431  087B               	movf	___fladd@grs,w
  5503  0432  00FF               	movwf	btemp+1
  5504  0433  087F               	movf	btemp+1,w
  5505  0434  00F9               	movwf	___fladd@aexp
  5506  0435                     i1l2812:
  5507  0435  0870               	movf	___fladd@b,w
  5508  0436  00FF               	movwf	btemp+1
  5509  0437  087F               	movf	btemp+1,w
  5510  0438  00FB               	movwf	___fladd@grs
  5511  0439                     i1l2814:
  5512  0439  0874               	movf	___fladd@a,w
  5513  043A  00FF               	movwf	btemp+1
  5514  043B  087F               	movf	btemp+1,w
  5515  043C  00F0               	movwf	___fladd@b
  5516  043D                     i1l2816:
  5517  043D  087B               	movf	___fladd@grs,w
  5518  043E  00FF               	movwf	btemp+1
  5519  043F  087F               	movf	btemp+1,w
  5520  0440  00F4               	movwf	___fladd@a
  5521  0441                     i1l2818:
  5522  0441  0871               	movf	___fladd@b+1,w
  5523  0442  00FF               	movwf	btemp+1
  5524  0443  087F               	movf	btemp+1,w
  5525  0444  00FB               	movwf	___fladd@grs
  5526  0445                     i1l2820:
  5527  0445  0875               	movf	___fladd@a+1,w
  5528  0446  00FF               	movwf	btemp+1
  5529  0447  087F               	movf	btemp+1,w
  5530  0448  00F1               	movwf	___fladd@b+1
  5531  0449                     i1l2822:
  5532  0449  087B               	movf	___fladd@grs,w
  5533  044A  00FF               	movwf	btemp+1
  5534  044B  087F               	movf	btemp+1,w
  5535  044C  00F5               	movwf	___fladd@a+1
  5536  044D                     i1l2824:
  5537  044D  0872               	movf	___fladd@b+2,w
  5538  044E  00FF               	movwf	btemp+1
  5539  044F  087F               	movf	btemp+1,w
  5540  0450  00FB               	movwf	___fladd@grs
  5541  0451                     i1l2826:
  5542  0451  0876               	movf	___fladd@a+2,w
  5543  0452  00FF               	movwf	btemp+1
  5544  0453  087F               	movf	btemp+1,w
  5545  0454  00F2               	movwf	___fladd@b+2
  5546  0455                     i1l2828:
  5547  0455  087B               	movf	___fladd@grs,w
  5548  0456  00FF               	movwf	btemp+1
  5549  0457  087F               	movf	btemp+1,w
  5550  0458  00F6               	movwf	___fladd@a+2
  5551  0459                     i1l2830:
  5552  0459  0873               	movf	___fladd@b+3,w
  5553  045A  00FF               	movwf	btemp+1
  5554  045B  087F               	movf	btemp+1,w
  5555  045C  00FB               	movwf	___fladd@grs
  5556  045D                     i1l2832:
  5557  045D  0877               	movf	___fladd@a+3,w
  5558  045E  00FF               	movwf	btemp+1
  5559  045F  087F               	movf	btemp+1,w
  5560  0460  00F3               	movwf	___fladd@b+3
  5561  0461                     i1l2834:
  5562  0461  087B               	movf	___fladd@grs,w
  5563  0462  00FF               	movwf	btemp+1
  5564  0463  087F               	movf	btemp+1,w
  5565  0464  00F7               	movwf	___fladd@a+3
  5566  0465                     i1l2836:
  5567  0465  01FB               	clrf	___fladd@grs
  5568  0466                     i1l2838:
  5569  0466  0879               	movf	___fladd@aexp,w
  5570  0467  00A0               	movwf	??___fladd
  5571  0468  01A1               	clrf	??___fladd+1
  5572  0469  0821               	movf	??___fladd+1,w
  5573  046A  00A3               	movwf	??___fladd+3
  5574  046B  087A               	movf	___fladd@bexp,w
  5575  046C  0220               	subwf	??___fladd,w
  5576  046D  00A2               	movwf	??___fladd+2
  5577  046E  1C03               	skipc
  5578  046F  03A3               	decf	??___fladd+3,f
  5579  0470  0823               	movf	??___fladd+3,w
  5580  0471  3A80               	xorlw	128
  5581  0472  00FF               	movwf	btemp+1
  5582  0473  3080               	movlw	128
  5583  0474  027F               	subwf	btemp+1,w
  5584  0475  1D03               	skipz
  5585  0476  2C79               	goto	u389_25
  5586  0477  301A               	movlw	26
  5587  0478  0222               	subwf	??___fladd+2,w
  5588  0479                     u389_25:
  5589  0479  1C03               	skipc
  5590  047A  2C7C               	goto	u389_21
  5591  047B  2C7D               	goto	u389_20
  5592  047C                     u389_21:
  5593  047C  2CBC               	goto	i1l2858
  5594  047D                     u389_20:
  5595  047D                     i1l2840:
  5596  047D  0873               	movf	___fladd@b+3,w
  5597  047E  0472               	iorwf	___fladd@b+2,w
  5598  047F  0471               	iorwf	___fladd@b+1,w
  5599  0480  0470               	iorwf	___fladd@b,w
  5600  0481  1D03               	skipz
  5601  0482  2C84               	goto	u390_21
  5602  0483  2C86               	goto	u390_20
  5603  0484                     u390_21:
  5604  0484  3001               	movlw	1
  5605  0485  2C87               	goto	u391_20
  5606  0486                     u390_20:
  5607  0486  3000               	movlw	0
  5608  0487                     u391_20:
  5609  0487  00FF               	movwf	btemp+1
  5610  0488  087F               	movf	btemp+1,w
  5611  0489  00FB               	movwf	___fladd@grs
  5612  048A                     i1l2842:
  5613  048A  3000               	movlw	0
  5614  048B  00F3               	movwf	___fladd@b+3
  5615  048C  3000               	movlw	0
  5616  048D  00F2               	movwf	___fladd@b+2
  5617  048E  3000               	movlw	0
  5618  048F  00F1               	movwf	___fladd@b+1
  5619  0490  3000               	movlw	0
  5620  0491  00F0               	movwf	___fladd@b
  5621  0492                     i1l2844:
  5622  0492  0879               	movf	___fladd@aexp,w
  5623  0493  00FF               	movwf	btemp+1
  5624  0494  087F               	movf	btemp+1,w
  5625  0495  00FA               	movwf	___fladd@bexp
  5626  0496  2CC2               	goto	i1l751
  5627  0497                     i1l753:
  5628  0497  1C7B               	btfss	___fladd@grs,0
  5629  0498  2C9A               	goto	u392_21
  5630  0499  2C9B               	goto	u392_20
  5631  049A                     u392_21:
  5632  049A  2CA6               	goto	i1l2848
  5633  049B                     u392_20:
  5634  049B                     i1l2846:
  5635  049B  087B               	movf	___fladd@grs,w
  5636  049C  1283               	bcf	3,5	;RP0=0, select bank0
  5637  049D  1303               	bcf	3,6	;RP1=0, select bank0
  5638  049E  00A0               	movwf	??___fladd
  5639  049F  1003               	clrc
  5640  04A0  0C20               	rrf	??___fladd,w
  5641  04A1  3801               	iorlw	1
  5642  04A2  00FF               	movwf	btemp+1
  5643  04A3  087F               	movf	btemp+1,w
  5644  04A4  00FB               	movwf	___fladd@grs
  5645  04A5  2CA8               	goto	i1l2850
  5646  04A6                     i1l2848:
  5647  04A6  1003               	clrc
  5648  04A7  0CFB               	rrf	___fladd@grs,f
  5649  04A8                     i1l2850:
  5650  04A8  1C70               	btfss	___fladd@b,0
  5651  04A9  2CAB               	goto	u393_21
  5652  04AA  2CAC               	goto	u393_20
  5653  04AB                     u393_21:
  5654  04AB  2CAD               	goto	i1l2854
  5655  04AC                     u393_20:
  5656  04AC                     i1l2852:
  5657  04AC  17FB               	bsf	___fladd@grs,7
  5658  04AD                     i1l2854:
  5659  04AD  3001               	movlw	1
  5660  04AE  1283               	bcf	3,5	;RP0=0, select bank0
  5661  04AF  1303               	bcf	3,6	;RP1=0, select bank0
  5662  04B0  00A0               	movwf	??___fladd
  5663  04B1                     u394_25:
  5664  04B1  0D73               	rlf	___fladd@b+3,w
  5665  04B2  0CF3               	rrf	___fladd@b+3,f
  5666  04B3  0CF2               	rrf	___fladd@b+2,f
  5667  04B4  0CF1               	rrf	___fladd@b+1,f
  5668  04B5  0CF0               	rrf	___fladd@b,f
  5669  04B6  0BA0               	decfsz	??___fladd& (0+127),f
  5670  04B7  2CB1               	goto	u394_25
  5671  04B8                     i1l2856:
  5672  04B8  3001               	movlw	1
  5673  04B9  00FF               	movwf	btemp+1
  5674  04BA  087F               	movf	btemp+1,w
  5675  04BB  07FA               	addwf	___fladd@bexp,f
  5676  04BC                     i1l2858:
  5677  04BC  0879               	movf	___fladd@aexp,w
  5678  04BD  027A               	subwf	___fladd@bexp,w
  5679  04BE  1C03               	skipc
  5680  04BF  2CC1               	goto	u395_21
  5681  04C0  2CC2               	goto	u395_20
  5682  04C1                     u395_21:
  5683  04C1  2C97               	goto	i1l753
  5684  04C2                     u395_20:
  5685  04C2                     i1l751:
  5686  04C2  1B78               	btfsc	___fladd@signs,6
  5687  04C3  2CC5               	goto	u396_21
  5688  04C4  2CC6               	goto	u396_20
  5689  04C5                     u396_21:
  5690  04C5  2D15               	goto	i1l2884
  5691  04C6                     u396_20:
  5692  04C6                     i1l2860:
  5693  04C6  087A               	movf	___fladd@bexp,w
  5694  04C7  1D03               	btfss	3,2
  5695  04C8  2CCA               	goto	u397_21
  5696  04C9  2CCB               	goto	u397_20
  5697  04CA                     u397_21:
  5698  04CA  2CD4               	goto	i1l2866
  5699  04CB                     u397_20:
  5700  04CB                     i1l2862:
  5701  04CB  3000               	movlw	0
  5702  04CC  00F3               	movwf	?___fladd+3
  5703  04CD  3000               	movlw	0
  5704  04CE  00F2               	movwf	?___fladd+2
  5705  04CF  3000               	movlw	0
  5706  04D0  00F1               	movwf	?___fladd+1
  5707  04D1  3000               	movlw	0
  5708  04D2  00F0               	movwf	?___fladd
  5709  04D3  2E4B               	goto	i1l760
  5710  04D4                     i1l2866:
  5711  04D4  0874               	movf	___fladd@a,w
  5712  04D5  07F0               	addwf	___fladd@b,f
  5713  04D6  0875               	movf	___fladd@a+1,w
  5714  04D7  1103               	clrz
  5715  04D8  1803               	skipnc
  5716  04D9  3E01               	addlw	1
  5717  04DA  1903               	skipnz
  5718  04DB  2CDD               	goto	u398_21
  5719  04DC  07F1               	addwf	___fladd@b+1,f
  5720  04DD                     u398_21:
  5721  04DD  0876               	movf	___fladd@a+2,w
  5722  04DE  1103               	clrz
  5723  04DF  1803               	skipnc
  5724  04E0  3E01               	addlw	1
  5725  04E1  1903               	skipnz
  5726  04E2  2CE4               	goto	u398_22
  5727  04E3  07F2               	addwf	___fladd@b+2,f
  5728  04E4                     u398_22:
  5729  04E4  0877               	movf	___fladd@a+3,w
  5730  04E5  1103               	clrz
  5731  04E6  1803               	skipnc
  5732  04E7  3E01               	addlw	1
  5733  04E8  1903               	skipnz
  5734  04E9  2CEB               	goto	u398_23
  5735  04EA  07F3               	addwf	___fladd@b+3,f
  5736  04EB                     u398_23:
  5737  04EB                     i1l2868:
  5738  04EB  1C73               	btfss	___fladd@b+3,0
  5739  04EC  2CEE               	goto	u399_21
  5740  04ED  2CEF               	goto	u399_20
  5741  04EE                     u399_21:
  5742  04EE  2DCD               	goto	i1l2920
  5743  04EF                     u399_20:
  5744  04EF                     i1l2870:
  5745  04EF  1C7B               	btfss	___fladd@grs,0
  5746  04F0  2CF2               	goto	u400_21
  5747  04F1  2CF3               	goto	u400_20
  5748  04F2                     u400_21:
  5749  04F2  2CFE               	goto	i1l2874
  5750  04F3                     u400_20:
  5751  04F3                     i1l2872:
  5752  04F3  087B               	movf	___fladd@grs,w
  5753  04F4  1283               	bcf	3,5	;RP0=0, select bank0
  5754  04F5  1303               	bcf	3,6	;RP1=0, select bank0
  5755  04F6  00A0               	movwf	??___fladd
  5756  04F7  1003               	clrc
  5757  04F8  0C20               	rrf	??___fladd,w
  5758  04F9  3801               	iorlw	1
  5759  04FA  00FF               	movwf	btemp+1
  5760  04FB  087F               	movf	btemp+1,w
  5761  04FC  00FB               	movwf	___fladd@grs
  5762  04FD  2D00               	goto	i1l2876
  5763  04FE                     i1l2874:
  5764  04FE  1003               	clrc
  5765  04FF  0CFB               	rrf	___fladd@grs,f
  5766  0500                     i1l2876:
  5767  0500  1C70               	btfss	___fladd@b,0
  5768  0501  2D03               	goto	u401_21
  5769  0502  2D04               	goto	u401_20
  5770  0503                     u401_21:
  5771  0503  2D05               	goto	i1l2880
  5772  0504                     u401_20:
  5773  0504                     i1l2878:
  5774  0504  17FB               	bsf	___fladd@grs,7
  5775  0505                     i1l2880:
  5776  0505  3001               	movlw	1
  5777  0506  1283               	bcf	3,5	;RP0=0, select bank0
  5778  0507  1303               	bcf	3,6	;RP1=0, select bank0
  5779  0508  00A0               	movwf	??___fladd
  5780  0509                     u402_25:
  5781  0509  0D73               	rlf	___fladd@b+3,w
  5782  050A  0CF3               	rrf	___fladd@b+3,f
  5783  050B  0CF2               	rrf	___fladd@b+2,f
  5784  050C  0CF1               	rrf	___fladd@b+1,f
  5785  050D  0CF0               	rrf	___fladd@b,f
  5786  050E  0BA0               	decfsz	??___fladd& (0+127),f
  5787  050F  2D09               	goto	u402_25
  5788  0510                     i1l2882:
  5789  0510  3001               	movlw	1
  5790  0511  00FF               	movwf	btemp+1
  5791  0512  087F               	movf	btemp+1,w
  5792  0513  07FA               	addwf	___fladd@bexp,f
  5793  0514  2DCD               	goto	i1l2920
  5794  0515                     i1l2884:
  5795  0515  0873               	movf	___fladd@b+3,w
  5796  0516  3A80               	xorlw	128
  5797  0517  00FF               	movwf	btemp+1
  5798  0518  0877               	movf	___fladd@a+3,w
  5799  0519  3A80               	xorlw	128
  5800  051A  027F               	subwf	btemp+1,w
  5801  051B  1D03               	skipz
  5802  051C  2D27               	goto	u403_23
  5803  051D  0876               	movf	___fladd@a+2,w
  5804  051E  0272               	subwf	___fladd@b+2,w
  5805  051F  1D03               	skipz
  5806  0520  2D27               	goto	u403_23
  5807  0521  0875               	movf	___fladd@a+1,w
  5808  0522  0271               	subwf	___fladd@b+1,w
  5809  0523  1D03               	skipz
  5810  0524  2D27               	goto	u403_23
  5811  0525  0874               	movf	___fladd@a,w
  5812  0526  0270               	subwf	___fladd@b,w
  5813  0527                     u403_23:
  5814  0527  1803               	skipnc
  5815  0528  2D2A               	goto	u403_21
  5816  0529  2D2B               	goto	u403_20
  5817  052A                     u403_21:
  5818  052A  2D85               	goto	i1l2896
  5819  052B                     u403_20:
  5820  052B                     i1l2886:
  5821  052B  30FF               	movlw	255
  5822  052C  1283               	bcf	3,5	;RP0=0, select bank0
  5823  052D  1303               	bcf	3,6	;RP1=0, select bank0
  5824  052E  00A0               	movwf	??___fladd
  5825  052F  30FF               	movlw	255
  5826  0530  00A1               	movwf	??___fladd+1
  5827  0531  30FF               	movlw	255
  5828  0532  00A2               	movwf	??___fladd+2
  5829  0533  30FF               	movlw	255
  5830  0534  00A3               	movwf	??___fladd+3
  5831  0535  0874               	movf	___fladd@a,w
  5832  0536  00A4               	movwf	??___fladd+4
  5833  0537  0875               	movf	___fladd@a+1,w
  5834  0538  00A5               	movwf	??___fladd+5
  5835  0539  0876               	movf	___fladd@a+2,w
  5836  053A  00A6               	movwf	??___fladd+6
  5837  053B  0877               	movf	___fladd@a+3,w
  5838  053C  00A7               	movwf	??___fladd+7
  5839  053D  0870               	movf	___fladd@b,w
  5840  053E  02A4               	subwf	??___fladd+4,f
  5841  053F  0871               	movf	___fladd@b+1,w
  5842  0540  1C03               	skipc
  5843  0541  0F71               	incfsz	___fladd@b+1,w
  5844  0542  2D44               	goto	u404_21
  5845  0543  2D45               	goto	u404_22
  5846  0544                     u404_21:
  5847  0544  02A5               	subwf	??___fladd+5,f
  5848  0545                     u404_22:
  5849  0545  0872               	movf	___fladd@b+2,w
  5850  0546  1C03               	skipc
  5851  0547  0F72               	incfsz	___fladd@b+2,w
  5852  0548  2D4A               	goto	u404_23
  5853  0549  2D4B               	goto	u404_24
  5854  054A                     u404_23:
  5855  054A  02A6               	subwf	??___fladd+6,f
  5856  054B                     u404_24:
  5857  054B  0873               	movf	___fladd@b+3,w
  5858  054C  1C03               	skipc
  5859  054D  0F73               	incfsz	___fladd@b+3,w
  5860  054E  2D50               	goto	u404_25
  5861  054F  2D51               	goto	u404_26
  5862  0550                     u404_25:
  5863  0550  02A7               	subwf	??___fladd+7,f
  5864  0551                     u404_26:
  5865  0551  0824               	movf	??___fladd+4,w
  5866  0552  07A0               	addwf	??___fladd,f
  5867  0553  0825               	movf	??___fladd+5,w
  5868  0554  1803               	skipnc
  5869  0555  0F25               	incfsz	??___fladd+5,w
  5870  0556  2D58               	goto	u405_20
  5871  0557  2D59               	goto	u405_21
  5872  0558                     u405_20:
  5873  0558  07A1               	addwf	??___fladd+1,f
  5874  0559                     u405_21:
  5875  0559  0826               	movf	??___fladd+6,w
  5876  055A  1803               	skipnc
  5877  055B  0F26               	incfsz	??___fladd+6,w
  5878  055C  2D5E               	goto	u405_22
  5879  055D  2D5F               	goto	u405_23
  5880  055E                     u405_22:
  5881  055E  07A2               	addwf	??___fladd+2,f
  5882  055F                     u405_23:
  5883  055F  0827               	movf	??___fladd+7,w
  5884  0560  1803               	skipnc
  5885  0561  0A27               	incf	??___fladd+7,w
  5886  0562  07A3               	addwf	??___fladd+3,f
  5887  0563  0823               	movf	??___fladd+3,w
  5888  0564  00F3               	movwf	___fladd@b+3
  5889  0565  0822               	movf	??___fladd+2,w
  5890  0566  00F2               	movwf	___fladd@b+2
  5891  0567  0821               	movf	??___fladd+1,w
  5892  0568  00F1               	movwf	___fladd@b+1
  5893  0569  0820               	movf	??___fladd,w
  5894  056A  00F0               	movwf	___fladd@b
  5895  056B                     i1l2888:
  5896  056B  3080               	movlw	128
  5897  056C  00FF               	movwf	btemp+1
  5898  056D  087F               	movf	btemp+1,w
  5899  056E  06F8               	xorwf	___fladd@signs,f
  5900  056F                     i1l2890:
  5901  056F  09FB               	comf	___fladd@grs,f
  5902  0570  0AFB               	incf	___fladd@grs,f
  5903  0571                     i1l2892:
  5904  0571  087B               	movf	___fladd@grs,w
  5905  0572  1D03               	btfss	3,2
  5906  0573  2D75               	goto	u406_21
  5907  0574  2D76               	goto	u406_20
  5908  0575                     u406_21:
  5909  0575  2D93               	goto	i1l768
  5910  0576                     u406_20:
  5911  0576                     i1l2894:
  5912  0576  3001               	movlw	1
  5913  0577  07F0               	addwf	___fladd@b,f
  5914  0578  3000               	movlw	0
  5915  0579  1803               	skipnc
  5916  057A  3001               	movlw	1
  5917  057B  07F1               	addwf	___fladd@b+1,f
  5918  057C  3000               	movlw	0
  5919  057D  1803               	skipnc
  5920  057E  3001               	movlw	1
  5921  057F  07F2               	addwf	___fladd@b+2,f
  5922  0580  3000               	movlw	0
  5923  0581  1803               	skipnc
  5924  0582  3001               	movlw	1
  5925  0583  07F3               	addwf	___fladd@b+3,f
  5926  0584  2D93               	goto	i1l768
  5927  0585                     i1l2896:
  5928  0585  0874               	movf	___fladd@a,w
  5929  0586  02F0               	subwf	___fladd@b,f
  5930  0587  0875               	movf	___fladd@a+1,w
  5931  0588  1C03               	skipc
  5932  0589  0F75               	incfsz	___fladd@a+1,w
  5933  058A  02F1               	subwf	___fladd@b+1,f
  5934  058B  0876               	movf	___fladd@a+2,w
  5935  058C  1C03               	skipc
  5936  058D  0F76               	incfsz	___fladd@a+2,w
  5937  058E  02F2               	subwf	___fladd@b+2,f
  5938  058F  0877               	movf	___fladd@a+3,w
  5939  0590  1C03               	skipc
  5940  0591  0F77               	incfsz	___fladd@a+3,w
  5941  0592  02F3               	subwf	___fladd@b+3,f
  5942  0593                     i1l768:
  5943  0593  0873               	movf	___fladd@b+3,w
  5944  0594  0472               	iorwf	___fladd@b+2,w
  5945  0595  0471               	iorwf	___fladd@b+1,w
  5946  0596  0470               	iorwf	___fladd@b,w
  5947  0597  1D03               	skipz
  5948  0598  2D9A               	goto	u407_21
  5949  0599  2D9B               	goto	u407_20
  5950  059A                     u407_21:
  5951  059A  2DC9               	goto	i1l2918
  5952  059B                     u407_20:
  5953  059B                     i1l2898:
  5954  059B  087B               	movf	___fladd@grs,w
  5955  059C  1D03               	btfss	3,2
  5956  059D  2D9F               	goto	u408_21
  5957  059E  2DA0               	goto	u408_20
  5958  059F                     u408_21:
  5959  059F  2DC9               	goto	i1l2918
  5960  05A0                     u408_20:
  5961  05A0                     i1l2900:
  5962  05A0  3000               	movlw	0
  5963  05A1  00F3               	movwf	?___fladd+3
  5964  05A2  3000               	movlw	0
  5965  05A3  00F2               	movwf	?___fladd+2
  5966  05A4  3000               	movlw	0
  5967  05A5  00F1               	movwf	?___fladd+1
  5968  05A6  3000               	movlw	0
  5969  05A7  00F0               	movwf	?___fladd
  5970  05A8  2E4B               	goto	i1l760
  5971  05A9                     i1l2904:
  5972  05A9  3001               	movlw	1
  5973  05AA  1283               	bcf	3,5	;RP0=0, select bank0
  5974  05AB  1303               	bcf	3,6	;RP1=0, select bank0
  5975  05AC  00A0               	movwf	??___fladd
  5976  05AD                     u409_25:
  5977  05AD  1003               	clrc
  5978  05AE  0DF0               	rlf	___fladd@b,f
  5979  05AF  0DF1               	rlf	___fladd@b+1,f
  5980  05B0  0DF2               	rlf	___fladd@b+2,f
  5981  05B1  0DF3               	rlf	___fladd@b+3,f
  5982  05B2  0BA0               	decfsz	??___fladd,f
  5983  05B3  2DAD               	goto	u409_25
  5984  05B4                     i1l2906:
  5985  05B4  1FFB               	btfss	___fladd@grs,7
  5986  05B5  2DB7               	goto	u410_21
  5987  05B6  2DB8               	goto	u410_20
  5988  05B7                     u410_21:
  5989  05B7  2DB9               	goto	i1l772
  5990  05B8                     u410_20:
  5991  05B8                     i1l2908:
  5992  05B8  1470               	bsf	___fladd@b,0
  5993  05B9                     i1l772:
  5994  05B9  1C7B               	btfss	___fladd@grs,0
  5995  05BA  2DBC               	goto	u411_21
  5996  05BB  2DBD               	goto	u411_20
  5997  05BC                     u411_21:
  5998  05BC  2DC0               	goto	i1l2912
  5999  05BD                     u411_20:
  6000  05BD                     i1l2910:
  6001  05BD  1403               	setc
  6002  05BE  0DFB               	rlf	___fladd@grs,f
  6003  05BF  2DC2               	goto	i1l2914
  6004  05C0                     i1l2912:
  6005  05C0  1003               	clrc
  6006  05C1  0DFB               	rlf	___fladd@grs,f
  6007  05C2                     i1l2914:
  6008  05C2  087A               	movf	___fladd@bexp,w
  6009  05C3  1903               	btfsc	3,2
  6010  05C4  2DC6               	goto	u412_21
  6011  05C5  2DC7               	goto	u412_20
  6012  05C6                     u412_21:
  6013  05C6  2DC9               	goto	i1l2918
  6014  05C7                     u412_20:
  6015  05C7                     i1l2916:
  6016  05C7  3001               	movlw	1
  6017  05C8  02FA               	subwf	___fladd@bexp,f
  6018  05C9                     i1l2918:
  6019  05C9  1FF2               	btfss	___fladd@b+2,7
  6020  05CA  2DCC               	goto	u413_21
  6021  05CB  2DCD               	goto	u413_20
  6022  05CC                     u413_21:
  6023  05CC  2DA9               	goto	i1l2904
  6024  05CD                     u413_20:
  6025  05CD                     i1l2920:
  6026  05CD  01F9               	clrf	___fladd@aexp
  6027  05CE                     i1l2922:
  6028  05CE  1FFB               	btfss	___fladd@grs,7
  6029  05CF  2DD1               	goto	u414_21
  6030  05D0  2DD2               	goto	u414_20
  6031  05D1                     u414_21:
  6032  05D1  2DE0               	goto	i1l2930
  6033  05D2                     u414_20:
  6034  05D2                     i1l2924:
  6035  05D2  087B               	movf	___fladd@grs,w
  6036  05D3  397F               	andlw	127
  6037  05D4  1903               	btfsc	3,2
  6038  05D5  2DD7               	goto	u415_21
  6039  05D6  2DD8               	goto	u415_20
  6040  05D7                     u415_21:
  6041  05D7  2DDB               	goto	i1l778
  6042  05D8                     u415_20:
  6043  05D8                     i1l2926:
  6044  05D8  01F9               	clrf	___fladd@aexp
  6045  05D9  0AF9               	incf	___fladd@aexp,f
  6046  05DA  2DE0               	goto	i1l2930
  6047  05DB                     i1l778:
  6048  05DB  1C70               	btfss	___fladd@b,0
  6049  05DC  2DDE               	goto	u416_21
  6050  05DD  2DDF               	goto	u416_20
  6051  05DE                     u416_21:
  6052  05DE  2DE0               	goto	i1l2930
  6053  05DF                     u416_20:
  6054  05DF  2DD8               	goto	i1l2926
  6055  05E0                     i1l2930:
  6056  05E0  0879               	movf	___fladd@aexp,w
  6057  05E1  1903               	btfsc	3,2
  6058  05E2  2DE4               	goto	u417_21
  6059  05E3  2DE5               	goto	u417_20
  6060  05E4                     u417_21:
  6061  05E4  2E1B               	goto	i1l2940
  6062  05E5                     u417_20:
  6063  05E5                     i1l2932:
  6064  05E5  3001               	movlw	1
  6065  05E6  07F0               	addwf	___fladd@b,f
  6066  05E7  3000               	movlw	0
  6067  05E8  1803               	skipnc
  6068  05E9  3001               	movlw	1
  6069  05EA  07F1               	addwf	___fladd@b+1,f
  6070  05EB  3000               	movlw	0
  6071  05EC  1803               	skipnc
  6072  05ED  3001               	movlw	1
  6073  05EE  07F2               	addwf	___fladd@b+2,f
  6074  05EF  3000               	movlw	0
  6075  05F0  1803               	skipnc
  6076  05F1  3001               	movlw	1
  6077  05F2  07F3               	addwf	___fladd@b+3,f
  6078  05F3                     i1l2934:
  6079  05F3  1C73               	btfss	___fladd@b+3,0
  6080  05F4  2DF6               	goto	u418_21
  6081  05F5  2DF7               	goto	u418_20
  6082  05F6                     u418_21:
  6083  05F6  2E1B               	goto	i1l2940
  6084  05F7                     u418_20:
  6085  05F7                     i1l2936:
  6086  05F7  0870               	movf	___fladd@b,w
  6087  05F8  1283               	bcf	3,5	;RP0=0, select bank0
  6088  05F9  1303               	bcf	3,6	;RP1=0, select bank0
  6089  05FA  00A0               	movwf	??___fladd
  6090  05FB  0871               	movf	___fladd@b+1,w
  6091  05FC  00A1               	movwf	??___fladd+1
  6092  05FD  0872               	movf	___fladd@b+2,w
  6093  05FE  00A2               	movwf	??___fladd+2
  6094  05FF  0873               	movf	___fladd@b+3,w
  6095  0600  00A3               	movwf	??___fladd+3
  6096  0601  3001               	movlw	1
  6097  0602  00A4               	movwf	??___fladd+4
  6098  0603                     u419_25:
  6099  0603  0D23               	rlf	??___fladd+3,w
  6100  0604  0CA3               	rrf	??___fladd+3,f
  6101  0605  0CA2               	rrf	??___fladd+2,f
  6102  0606  0CA1               	rrf	??___fladd+1,f
  6103  0607  0CA0               	rrf	??___fladd,f
  6104  0608                     u419_20:
  6105  0608  0BA4               	decfsz	??___fladd+4,f
  6106  0609  2E03               	goto	u419_25
  6107  060A  0823               	movf	??___fladd+3,w
  6108  060B  00F3               	movwf	___fladd@b+3
  6109  060C  0822               	movf	??___fladd+2,w
  6110  060D  00F2               	movwf	___fladd@b+2
  6111  060E  0821               	movf	??___fladd+1,w
  6112  060F  00F1               	movwf	___fladd@b+1
  6113  0610  0820               	movf	??___fladd,w
  6114  0611  00F0               	movwf	___fladd@b
  6115  0612  0A7A               	incf	___fladd@bexp,w
  6116  0613  1903               	btfsc	3,2
  6117  0614  2E16               	goto	u420_21
  6118  0615  2E17               	goto	u420_20
  6119  0616                     u420_21:
  6120  0616  2E1B               	goto	i1l2940
  6121  0617                     u420_20:
  6122  0617                     i1l2938:
  6123  0617  3001               	movlw	1
  6124  0618  00FF               	movwf	btemp+1
  6125  0619  087F               	movf	btemp+1,w
  6126  061A  07FA               	addwf	___fladd@bexp,f
  6127  061B                     i1l2940:
  6128  061B  0A7A               	incf	___fladd@bexp,w
  6129  061C  1903               	btfsc	3,2
  6130  061D  2E1F               	goto	u421_21
  6131  061E  2E20               	goto	u421_20
  6132  061F                     u421_21:
  6133  061F  2E25               	goto	i1l2944
  6134  0620                     u421_20:
  6135  0620                     i1l2942:
  6136  0620  087A               	movf	___fladd@bexp,w
  6137  0621  1D03               	btfss	3,2
  6138  0622  2E24               	goto	u422_21
  6139  0623  2E25               	goto	u422_20
  6140  0624                     u422_21:
  6141  0624  2E33               	goto	i1l2950
  6142  0625                     u422_20:
  6143  0625                     i1l2944:
  6144  0625  3000               	movlw	0
  6145  0626  00F3               	movwf	___fladd@b+3
  6146  0627  3000               	movlw	0
  6147  0628  00F2               	movwf	___fladd@b+2
  6148  0629  3000               	movlw	0
  6149  062A  00F1               	movwf	___fladd@b+1
  6150  062B  3000               	movlw	0
  6151  062C  00F0               	movwf	___fladd@b
  6152  062D                     i1l2946:
  6153  062D  087A               	movf	___fladd@bexp,w
  6154  062E  1D03               	btfss	3,2
  6155  062F  2E31               	goto	u423_21
  6156  0630  2E32               	goto	u423_20
  6157  0631                     u423_21:
  6158  0631  2E33               	goto	i1l2950
  6159  0632                     u423_20:
  6160  0632                     i1l2948:
  6161  0632  01F8               	clrf	___fladd@signs
  6162  0633                     i1l2950:
  6163  0633  1C7A               	btfss	___fladd@bexp,0
  6164  0634  2E36               	goto	u424_21
  6165  0635  2E37               	goto	u424_20
  6166  0636                     u424_21:
  6167  0636  2E39               	goto	i1l2954
  6168  0637                     u424_20:
  6169  0637                     i1l2952:
  6170  0637  17F2               	bsf	___fladd@b+2,7
  6171  0638  2E3D               	goto	i1l789
  6172  0639                     i1l2954:
  6173  0639  307F               	movlw	127
  6174  063A  00FF               	movwf	btemp+1
  6175  063B  087F               	movf	btemp+1,w
  6176  063C  05F2               	andwf	___fladd@b+2,f
  6177  063D                     i1l789:
  6178  063D  087A               	movf	___fladd@bexp,w
  6179  063E  1283               	bcf	3,5	;RP0=0, select bank0
  6180  063F  1303               	bcf	3,6	;RP1=0, select bank0
  6181  0640  00A0               	movwf	??___fladd
  6182  0641  1003               	clrc
  6183  0642  0C20               	rrf	??___fladd,w
  6184  0643  00FF               	movwf	btemp+1
  6185  0644  087F               	movf	btemp+1,w
  6186  0645  00F3               	movwf	___fladd@b+3
  6187  0646                     i1l2956:
  6188  0646  1FF8               	btfss	___fladd@signs,7
  6189  0647  2E49               	goto	u425_21
  6190  0648  2E4A               	goto	u425_20
  6191  0649                     u425_21:
  6192  0649  2E4B               	goto	i1l790
  6193  064A                     u425_20:
  6194  064A                     i1l2958:
  6195  064A  17F3               	bsf	___fladd@b+3,7
  6196  064B                     i1l790:
  6197  064B                     i1l760:
  6198  064B  0008               	return
  6199  064C                     __end_of___fladd:
  6200                           
  6201                           	psect	text32
  6202  089D                     __ptext32:	
  6203 ;; *************** function _Sense_Temp *****************
  6204 ;; Defined at:
  6205 ;;		line 17 in file "TEMP_SENSOR.c"
  6206 ;; Parameters:    Size  Location     Type
  6207 ;;		None
  6208 ;; Auto vars:     Size  Location     Type
  6209 ;;		None
  6210 ;; Return value:  Size  Location     Type
  6211 ;;                  4   58[BANK0 ] float 
  6212 ;; Registers used:
  6213 ;;		wreg, status,2, status,0, btemp+1, pclath, cstack
  6214 ;; Tracked objects:
  6215 ;;		On entry : 0/0
  6216 ;;		On exit  : 0/0
  6217 ;;		Unchanged: 0/0
  6218 ;; Data sizes:     COMMON   BANK0   BANK1   BANK3   BANK2
  6219 ;;      Params:         0       4       0       0       0
  6220 ;;      Locals:         0       0       0       0       0
  6221 ;;      Temps:          4       0       0       0       0
  6222 ;;      Totals:         4       4       0       0       0
  6223 ;;Total ram usage:        8 bytes
  6224 ;; Hardware stack levels used:    1
  6225 ;; Hardware stack levels required when called:    2
  6226 ;; This function calls:
  6227 ;;		_ADC_Read
  6228 ;;		___fldiv
  6229 ;;		___flmul
  6230 ;;		i1___xxtofl
  6231 ;; This function is called by:
  6232 ;;		_ISR_CallBack
  6233 ;; This function uses a non-reentrant model
  6234 ;;
  6235                           
  6236                           
  6237                           ;psect for function _Sense_Temp
  6238  089D                     _Sense_Temp:
  6239  089D                     i1l2624:	
  6240                           ;incstack = 0
  6241                           ; Regs used in _Sense_Temp: [wreg+status,2+status,0+btemp+1+pclath+cstack]
  6242                           
  6243                           
  6244                           ;TEMP_SENSOR.c: 19:  return ( (ADC_Read()*(5.0/1024.0))/0.01 );
  6245  089D  303C               	movlw	60
  6246  089E  1283               	bcf	3,5	;RP0=0, select bank0
  6247  089F  1303               	bcf	3,6	;RP1=0, select bank0
  6248  08A0  00C3               	movwf	___fldiv@a+3
  6249  08A1  3023               	movlw	35
  6250  08A2  00C2               	movwf	___fldiv@a+2
  6251  08A3  30D7               	movlw	215
  6252  08A4  00C1               	movwf	___fldiv@a+1
  6253  08A5  300A               	movlw	10
  6254  08A6  00C0               	movwf	___fldiv@a
  6255  08A7  303B               	movlw	59
  6256  08A8  00A9               	movwf	___flmul@b+3
  6257  08A9  30A0               	movlw	160
  6258  08AA  00A8               	movwf	___flmul@b+2
  6259  08AB  3000               	movlw	0
  6260  08AC  00A7               	movwf	___flmul@b+1
  6261  08AD  3000               	movlw	0
  6262  08AE  00A6               	movwf	___flmul@b
  6263  08AF  160A  118A  2607  120A  158A  	fcall	_ADC_Read
  6264  08B4  0870               	movf	?_ADC_Read,w
  6265  08B5  00FA               	movwf	??_Sense_Temp
  6266  08B6  0871               	movf	?_ADC_Read+1,w
  6267  08B7  00FB               	movwf	??_Sense_Temp+1
  6268  08B8  01FC               	clrf	??_Sense_Temp+2
  6269  08B9  01FD               	clrf	??_Sense_Temp+3
  6270  08BA  087D               	movf	??_Sense_Temp+3,w
  6271  08BB  00F5               	movwf	i1___xxtofl@val+3
  6272  08BC  087C               	movf	??_Sense_Temp+2,w
  6273  08BD  00F4               	movwf	i1___xxtofl@val+2
  6274  08BE  087B               	movf	??_Sense_Temp+1,w
  6275  08BF  00F3               	movwf	i1___xxtofl@val+1
  6276  08C0  087A               	movf	??_Sense_Temp,w
  6277  08C1  00F2               	movwf	i1___xxtofl@val
  6278  08C2  3000               	movlw	0
  6279  08C3  120A  158A  23C0  120A  158A  	fcall	i1___xxtofl
  6280  08C8  0875               	movf	?i1___xxtofl+3,w
  6281  08C9  1283               	bcf	3,5	;RP0=0, select bank0
  6282  08CA  1303               	bcf	3,6	;RP1=0, select bank0
  6283  08CB  00AD               	movwf	___flmul@a+3
  6284  08CC  0874               	movf	?i1___xxtofl+2,w
  6285  08CD  00AC               	movwf	___flmul@a+2
  6286  08CE  0873               	movf	?i1___xxtofl+1,w
  6287  08CF  00AB               	movwf	___flmul@a+1
  6288  08D0  0872               	movf	?i1___xxtofl,w
  6289  08D1  00AA               	movwf	___flmul@a
  6290  08D2  120A  118A  2057  120A  158A  	fcall	___flmul
  6291  08D7  1283               	bcf	3,5	;RP0=0, select bank0
  6292  08D8  1303               	bcf	3,6	;RP1=0, select bank0
  6293  08D9  0829               	movf	?___flmul+3,w
  6294  08DA  00C7               	movwf	___fldiv@b+3
  6295  08DB  0828               	movf	?___flmul+2,w
  6296  08DC  00C6               	movwf	___fldiv@b+2
  6297  08DD  0827               	movf	?___flmul+1,w
  6298  08DE  00C5               	movwf	___fldiv@b+1
  6299  08DF  0826               	movf	?___flmul,w
  6300  08E0  00C4               	movwf	___fldiv@b
  6301  08E1  120A  158A  2623  120A  158A  	fcall	___fldiv
  6302  08E6  1283               	bcf	3,5	;RP0=0, select bank0
  6303  08E7  1303               	bcf	3,6	;RP1=0, select bank0
  6304  08E8  0843               	movf	?___fldiv+3,w
  6305  08E9  00DD               	movwf	?_Sense_Temp+3
  6306  08EA  0842               	movf	?___fldiv+2,w
  6307  08EB  00DC               	movwf	?_Sense_Temp+2
  6308  08EC  0841               	movf	?___fldiv+1,w
  6309  08ED  00DB               	movwf	?_Sense_Temp+1
  6310  08EE  0840               	movf	?___fldiv,w
  6311  08EF  00DA               	movwf	?_Sense_Temp
  6312  08F0                     i1l318:
  6313  08F0  0008               	return
  6314  08F1                     __end_of_Sense_Temp:
  6315                           
  6316                           	psect	text33
  6317  0BC0                     __ptext33:	
  6318 ;; *************** function i1___xxtofl *****************
  6319 ;; Defined at:
  6320 ;;		line 10 in file "C:\Program Files\Microchip\xc8\v2.20\pic\sources\c90\common\xxtofl.c"
  6321 ;; Parameters:    Size  Location     Type
  6322 ;;  sign            1    wreg     unsigned char 
  6323 ;;  val             4    2[COMMON] long 
  6324 ;; Auto vars:     Size  Location     Type
  6325 ;;  sign            1    0[BANK0 ] unsigned char 
  6326 ;;  arg             4    2[BANK0 ] unsigned long 
  6327 ;;  exp             1    1[BANK0 ] unsigned char 
  6328 ;; Return value:  Size  Location     Type
  6329 ;;                  4    2[COMMON] unsigned char 
  6330 ;; Registers used:
  6331 ;;		wreg, status,2, status,0, btemp+1
  6332 ;; Tracked objects:
  6333 ;;		On entry : 0/0
  6334 ;;		On exit  : 0/0
  6335 ;;		Unchanged: 0/0
  6336 ;; Data sizes:     COMMON   BANK0   BANK1   BANK3   BANK2
  6337 ;;      Params:         4       0       0       0       0
  6338 ;;      Locals:         0       6       0       0       0
  6339 ;;      Temps:          4       0       0       0       0
  6340 ;;      Totals:         8       6       0       0       0
  6341 ;;Total ram usage:       14 bytes
  6342 ;; Hardware stack levels used:    1
  6343 ;; This function calls:
  6344 ;;		Nothing
  6345 ;; This function is called by:
  6346 ;;		_Sense_Temp
  6347 ;; This function uses a non-reentrant model
  6348 ;;
  6349                           
  6350                           
  6351                           ;psect for function i1___xxtofl
  6352  0BC0                     i1___xxtofl:
  6353                           
  6354                           ;incstack = 0
  6355                           ; Regs used in i1___xxtofl: [wreg+status,2+status,0+btemp+1]
  6356                           ;i1___xxtofl@sign stored from wreg
  6357  0BC0  1283               	bcf	3,5	;RP0=0, select bank0
  6358  0BC1  1303               	bcf	3,6	;RP1=0, select bank0
  6359  0BC2  00A0               	movwf	i1___xxtofl@sign
  6360  0BC3                     i1l2544:
  6361  0BC3  0820               	movf	i1___xxtofl@sign,w
  6362  0BC4  1903               	btfsc	3,2
  6363  0BC5  2BC7               	goto	u333_21
  6364  0BC6  2BC8               	goto	u333_20
  6365  0BC7                     u333_21:
  6366  0BC7  2BDC               	goto	i1l2550
  6367  0BC8                     u333_20:
  6368  0BC8                     i1l2546:
  6369  0BC8  1FF5               	btfss	i1___xxtofl@val+3,7
  6370  0BC9  2BCB               	goto	u334_21
  6371  0BCA  2BCC               	goto	u334_20
  6372  0BCB                     u334_21:
  6373  0BCB  2BDC               	goto	i1l2550
  6374  0BCC                     u334_20:
  6375  0BCC                     i1l2548:
  6376  0BCC  0972               	comf	i1___xxtofl@val,w
  6377  0BCD  00A2               	movwf	i1___xxtofl@arg
  6378  0BCE  0973               	comf	i1___xxtofl@val+1,w
  6379  0BCF  00A3               	movwf	i1___xxtofl@arg+1
  6380  0BD0  0974               	comf	i1___xxtofl@val+2,w
  6381  0BD1  00A4               	movwf	i1___xxtofl@arg+2
  6382  0BD2  0975               	comf	i1___xxtofl@val+3,w
  6383  0BD3  00A5               	movwf	i1___xxtofl@arg+3
  6384  0BD4  0AA2               	incf	i1___xxtofl@arg,f
  6385  0BD5  1903               	skipnz
  6386  0BD6  0AA3               	incf	i1___xxtofl@arg+1,f
  6387  0BD7  1903               	skipnz
  6388  0BD8  0AA4               	incf	i1___xxtofl@arg+2,f
  6389  0BD9  1903               	skipnz
  6390  0BDA  0AA5               	incf	i1___xxtofl@arg+3,f
  6391  0BDB  2BE4               	goto	i1l887
  6392  0BDC                     i1l2550:
  6393  0BDC  0875               	movf	i1___xxtofl@val+3,w
  6394  0BDD  00A5               	movwf	i1___xxtofl@arg+3
  6395  0BDE  0874               	movf	i1___xxtofl@val+2,w
  6396  0BDF  00A4               	movwf	i1___xxtofl@arg+2
  6397  0BE0  0873               	movf	i1___xxtofl@val+1,w
  6398  0BE1  00A3               	movwf	i1___xxtofl@arg+1
  6399  0BE2  0872               	movf	i1___xxtofl@val,w
  6400  0BE3  00A2               	movwf	i1___xxtofl@arg
  6401  0BE4                     i1l887:
  6402  0BE4  0875               	movf	i1___xxtofl@val+3,w
  6403  0BE5  0474               	iorwf	i1___xxtofl@val+2,w
  6404  0BE6  0473               	iorwf	i1___xxtofl@val+1,w
  6405  0BE7  0472               	iorwf	i1___xxtofl@val,w
  6406  0BE8  1D03               	skipz
  6407  0BE9  2BEB               	goto	u335_21
  6408  0BEA  2BEC               	goto	u335_20
  6409  0BEB                     u335_21:
  6410  0BEB  2BF5               	goto	i1l2556
  6411  0BEC                     u335_20:
  6412  0BEC                     i1l2552:
  6413  0BEC  3000               	movlw	0
  6414  0BED  00F5               	movwf	?i1___xxtofl+3
  6415  0BEE  3000               	movlw	0
  6416  0BEF  00F4               	movwf	?i1___xxtofl+2
  6417  0BF0  3000               	movlw	0
  6418  0BF1  00F3               	movwf	?i1___xxtofl+1
  6419  0BF2  3000               	movlw	0
  6420  0BF3  00F2               	movwf	?i1___xxtofl
  6421  0BF4  2C7B               	goto	i1l889
  6422  0BF5                     i1l2556:
  6423  0BF5  3096               	movlw	150
  6424  0BF6  00FF               	movwf	btemp+1
  6425  0BF7  087F               	movf	btemp+1,w
  6426  0BF8  00A1               	movwf	i1___xxtofl@exp
  6427  0BF9  2C07               	goto	i1l2562
  6428  0BFA                     i1l2558:
  6429  0BFA  3001               	movlw	1
  6430  0BFB  00FF               	movwf	btemp+1
  6431  0BFC  087F               	movf	btemp+1,w
  6432  0BFD  07A1               	addwf	i1___xxtofl@exp,f
  6433  0BFE                     i1l2560:
  6434  0BFE  3001               	movlw	1
  6435  0BFF                     u336_25:
  6436  0BFF  1003               	clrc
  6437  0C00  0CA5               	rrf	i1___xxtofl@arg+3,f
  6438  0C01  0CA4               	rrf	i1___xxtofl@arg+2,f
  6439  0C02  0CA3               	rrf	i1___xxtofl@arg+1,f
  6440  0C03  0CA2               	rrf	i1___xxtofl@arg,f
  6441  0C04  3EFF               	addlw	-1
  6442  0C05  1D03               	skipz
  6443  0C06  2BFF               	goto	u336_25
  6444  0C07                     i1l2562:
  6445  0C07  30FE               	movlw	254
  6446  0C08  0525               	andwf	i1___xxtofl@arg+3,w
  6447  0C09  1D03               	btfss	3,2
  6448  0C0A  2C0C               	goto	u337_21
  6449  0C0B  2C0D               	goto	u337_20
  6450  0C0C                     u337_21:
  6451  0C0C  2BFA               	goto	i1l2558
  6452  0C0D                     u337_20:
  6453  0C0D  2C29               	goto	i1l2570
  6454  0C0E                     i1l2564:
  6455  0C0E  3001               	movlw	1
  6456  0C0F  00FF               	movwf	btemp+1
  6457  0C10  087F               	movf	btemp+1,w
  6458  0C11  07A1               	addwf	i1___xxtofl@exp,f
  6459  0C12                     i1l2566:
  6460  0C12  3001               	movlw	1
  6461  0C13  07A2               	addwf	i1___xxtofl@arg,f
  6462  0C14  3000               	movlw	0
  6463  0C15  1803               	skipnc
  6464  0C16  3001               	movlw	1
  6465  0C17  07A3               	addwf	i1___xxtofl@arg+1,f
  6466  0C18  3000               	movlw	0
  6467  0C19  1803               	skipnc
  6468  0C1A  3001               	movlw	1
  6469  0C1B  07A4               	addwf	i1___xxtofl@arg+2,f
  6470  0C1C  3000               	movlw	0
  6471  0C1D  1803               	skipnc
  6472  0C1E  3001               	movlw	1
  6473  0C1F  07A5               	addwf	i1___xxtofl@arg+3,f
  6474  0C20                     i1l2568:
  6475  0C20  3001               	movlw	1
  6476  0C21                     u338_25:
  6477  0C21  1003               	clrc
  6478  0C22  0CA5               	rrf	i1___xxtofl@arg+3,f
  6479  0C23  0CA4               	rrf	i1___xxtofl@arg+2,f
  6480  0C24  0CA3               	rrf	i1___xxtofl@arg+1,f
  6481  0C25  0CA2               	rrf	i1___xxtofl@arg,f
  6482  0C26  3EFF               	addlw	-1
  6483  0C27  1D03               	skipz
  6484  0C28  2C21               	goto	u338_25
  6485  0C29                     i1l2570:
  6486  0C29  30FF               	movlw	255
  6487  0C2A  0525               	andwf	i1___xxtofl@arg+3,w
  6488  0C2B  1D03               	btfss	3,2
  6489  0C2C  2C2E               	goto	u339_21
  6490  0C2D  2C2F               	goto	u339_20
  6491  0C2E                     u339_21:
  6492  0C2E  2C0E               	goto	i1l2564
  6493  0C2F                     u339_20:
  6494  0C2F  2C3B               	goto	i1l2574
  6495  0C30                     i1l2572:
  6496  0C30  3001               	movlw	1
  6497  0C31  02A1               	subwf	i1___xxtofl@exp,f
  6498  0C32  3001               	movlw	1
  6499  0C33  00F6               	movwf	??i1___xxtofl
  6500  0C34                     u340_25:
  6501  0C34  1003               	clrc
  6502  0C35  0DA2               	rlf	i1___xxtofl@arg,f
  6503  0C36  0DA3               	rlf	i1___xxtofl@arg+1,f
  6504  0C37  0DA4               	rlf	i1___xxtofl@arg+2,f
  6505  0C38  0DA5               	rlf	i1___xxtofl@arg+3,f
  6506  0C39  0BF6               	decfsz	??i1___xxtofl,f
  6507  0C3A  2C34               	goto	u340_25
  6508  0C3B                     i1l2574:
  6509  0C3B  1BA4               	btfsc	i1___xxtofl@arg+2,7
  6510  0C3C  2C3E               	goto	u341_21
  6511  0C3D  2C3F               	goto	u341_20
  6512  0C3E                     u341_21:
  6513  0C3E  2C45               	goto	i1l900
  6514  0C3F                     u341_20:
  6515  0C3F                     i1l2576:
  6516  0C3F  3002               	movlw	2
  6517  0C40  0221               	subwf	i1___xxtofl@exp,w
  6518  0C41  1803               	skipnc
  6519  0C42  2C44               	goto	u342_21
  6520  0C43  2C45               	goto	u342_20
  6521  0C44                     u342_21:
  6522  0C44  2C30               	goto	i1l2572
  6523  0C45                     u342_20:
  6524  0C45                     i1l900:
  6525  0C45  1821               	btfsc	i1___xxtofl@exp,0
  6526  0C46  2C48               	goto	u343_21
  6527  0C47  2C49               	goto	u343_20
  6528  0C48                     u343_21:
  6529  0C48  2C51               	goto	i1l901
  6530  0C49                     u343_20:
  6531  0C49                     i1l2578:
  6532  0C49  30FF               	movlw	255
  6533  0C4A  05A2               	andwf	i1___xxtofl@arg,f
  6534  0C4B  30FF               	movlw	255
  6535  0C4C  05A3               	andwf	i1___xxtofl@arg+1,f
  6536  0C4D  307F               	movlw	127
  6537  0C4E  05A4               	andwf	i1___xxtofl@arg+2,f
  6538  0C4F  30FF               	movlw	255
  6539  0C50  05A5               	andwf	i1___xxtofl@arg+3,f
  6540  0C51                     i1l901:
  6541  0C51  1003               	clrc
  6542  0C52  0CA1               	rrf	i1___xxtofl@exp,f
  6543  0C53                     i1l2580:
  6544  0C53  0821               	movf	i1___xxtofl@exp,w
  6545  0C54  00F6               	movwf	??i1___xxtofl
  6546  0C55  01F7               	clrf	??i1___xxtofl+1
  6547  0C56  01F8               	clrf	??i1___xxtofl+2
  6548  0C57  01F9               	clrf	??i1___xxtofl+3
  6549  0C58  3018               	movlw	24
  6550  0C59                     u344_25:
  6551  0C59  1003               	clrc
  6552  0C5A  0DF6               	rlf	??i1___xxtofl,f
  6553  0C5B  0DF7               	rlf	??i1___xxtofl+1,f
  6554  0C5C  0DF8               	rlf	??i1___xxtofl+2,f
  6555  0C5D  0DF9               	rlf	??i1___xxtofl+3,f
  6556  0C5E                     u344_20:
  6557  0C5E  3EFF               	addlw	-1
  6558  0C5F  1D03               	skipz
  6559  0C60  2C59               	goto	u344_25
  6560  0C61  0876               	movf	??i1___xxtofl,w
  6561  0C62  04A2               	iorwf	i1___xxtofl@arg,f
  6562  0C63  0877               	movf	??i1___xxtofl+1,w
  6563  0C64  04A3               	iorwf	i1___xxtofl@arg+1,f
  6564  0C65  0878               	movf	??i1___xxtofl+2,w
  6565  0C66  04A4               	iorwf	i1___xxtofl@arg+2,f
  6566  0C67  0879               	movf	??i1___xxtofl+3,w
  6567  0C68  04A5               	iorwf	i1___xxtofl@arg+3,f
  6568  0C69                     i1l2582:
  6569  0C69  0820               	movf	i1___xxtofl@sign,w
  6570  0C6A  1903               	btfsc	3,2
  6571  0C6B  2C6D               	goto	u345_21
  6572  0C6C  2C6E               	goto	u345_20
  6573  0C6D                     u345_21:
  6574  0C6D  2C73               	goto	i1l2588
  6575  0C6E                     u345_20:
  6576  0C6E                     i1l2584:
  6577  0C6E  1FF5               	btfss	i1___xxtofl@val+3,7
  6578  0C6F  2C71               	goto	u346_21
  6579  0C70  2C72               	goto	u346_20
  6580  0C71                     u346_21:
  6581  0C71  2C73               	goto	i1l2588
  6582  0C72                     u346_20:
  6583  0C72                     i1l2586:
  6584  0C72  17A5               	bsf	i1___xxtofl@arg+3,7
  6585  0C73                     i1l2588:
  6586  0C73  0825               	movf	i1___xxtofl@arg+3,w
  6587  0C74  00F5               	movwf	?i1___xxtofl+3
  6588  0C75  0824               	movf	i1___xxtofl@arg+2,w
  6589  0C76  00F4               	movwf	?i1___xxtofl+2
  6590  0C77  0823               	movf	i1___xxtofl@arg+1,w
  6591  0C78  00F3               	movwf	?i1___xxtofl+1
  6592  0C79  0822               	movf	i1___xxtofl@arg,w
  6593  0C7A  00F2               	movwf	?i1___xxtofl
  6594  0C7B                     i1l889:
  6595  0C7B  0008               	return
  6596  0C7C                     __end_ofi1___xxtofl:
  6597                           
  6598                           	psect	text34
  6599  0057                     __ptext34:	
  6600 ;; *************** function ___flmul *****************
  6601 ;; Defined at:
  6602 ;;		line 8 in file "C:\Program Files\Microchip\xc8\v2.20\pic\sources\c90\common\sprcmul.c"
  6603 ;; Parameters:    Size  Location     Type
  6604 ;;  b               4    6[BANK0 ] unsigned char 
  6605 ;;  a               4   10[BANK0 ] unsigned char 
  6606 ;; Auto vars:     Size  Location     Type
  6607 ;;  prod            4   26[BANK0 ] struct .
  6608 ;;  grs             4   20[BANK0 ] unsigned long 
  6609 ;;  temp            2   30[BANK0 ] struct .
  6610 ;;  bexp            1   25[BANK0 ] unsigned char 
  6611 ;;  aexp            1   24[BANK0 ] unsigned char 
  6612 ;;  sign            1   19[BANK0 ] unsigned char 
  6613 ;; Return value:  Size  Location     Type
  6614 ;;                  4    6[BANK0 ] unsigned char 
  6615 ;; Registers used:
  6616 ;;		wreg, status,2, status,0, btemp+1, pclath, cstack
  6617 ;; Tracked objects:
  6618 ;;		On entry : 0/0
  6619 ;;		On exit  : 0/0
  6620 ;;		Unchanged: 0/0
  6621 ;; Data sizes:     COMMON   BANK0   BANK1   BANK3   BANK2
  6622 ;;      Params:         0       8       0       0       0
  6623 ;;      Locals:         0      13       0       0       0
  6624 ;;      Temps:          0       5       0       0       0
  6625 ;;      Totals:         0      26       0       0       0
  6626 ;;Total ram usage:       26 bytes
  6627 ;; Hardware stack levels used:    1
  6628 ;; Hardware stack levels required when called:    1
  6629 ;; This function calls:
  6630 ;;		__Umul8_16
  6631 ;; This function is called by:
  6632 ;;		_Sense_Temp
  6633 ;; This function uses a non-reentrant model
  6634 ;;
  6635                           
  6636                           
  6637                           ;psect for function ___flmul
  6638  0057                     ___flmul:
  6639  0057                     i1l2402:	
  6640                           ;incstack = 0
  6641                           ; Regs used in ___flmul: [wreg+status,2+status,0+btemp+1+pclath+cstack]
  6642                           
  6643  0057  1283               	bcf	3,5	;RP0=0, select bank0
  6644  0058  1303               	bcf	3,6	;RP1=0, select bank0
  6645  0059  0829               	movf	___flmul@b+3,w
  6646  005A  3980               	andlw	128
  6647  005B  00FF               	movwf	btemp+1
  6648  005C  087F               	movf	btemp+1,w
  6649  005D  00B3               	movwf	___flmul@sign
  6650  005E                     i1l2404:
  6651  005E  0829               	movf	___flmul@b+3,w
  6652  005F  00AE               	movwf	??___flmul
  6653  0060  072E               	addwf	??___flmul,w
  6654  0061  00FF               	movwf	btemp+1
  6655  0062  087F               	movf	btemp+1,w
  6656  0063  00B9               	movwf	___flmul@bexp
  6657  0064                     i1l2406:
  6658  0064  1FA8               	btfss	___flmul@b+2,7
  6659  0065  2867               	goto	u296_21
  6660  0066  2868               	goto	u296_20
  6661  0067                     u296_21:
  6662  0067  2869               	goto	i1l2410
  6663  0068                     u296_20:
  6664  0068                     i1l2408:
  6665  0068  1439               	bsf	___flmul@bexp,0
  6666  0069                     i1l2410:
  6667  0069  0839               	movf	___flmul@bexp,w
  6668  006A  1903               	btfsc	3,2
  6669  006B  286D               	goto	u297_21
  6670  006C  286E               	goto	u297_20
  6671  006D                     u297_21:
  6672  006D  287D               	goto	i1l2418
  6673  006E                     u297_20:
  6674  006E                     i1l2412:
  6675  006E  0A39               	incf	___flmul@bexp,w
  6676  006F  1D03               	btfss	3,2
  6677  0070  2872               	goto	u298_21
  6678  0071  2873               	goto	u298_20
  6679  0072                     u298_21:
  6680  0072  287B               	goto	i1l2416
  6681  0073                     u298_20:
  6682  0073                     i1l2414:
  6683  0073  3000               	movlw	0
  6684  0074  00A9               	movwf	___flmul@b+3
  6685  0075  3000               	movlw	0
  6686  0076  00A8               	movwf	___flmul@b+2
  6687  0077  3000               	movlw	0
  6688  0078  00A7               	movwf	___flmul@b+1
  6689  0079  3000               	movlw	0
  6690  007A  00A6               	movwf	___flmul@b
  6691  007B                     i1l2416:
  6692  007B  17A8               	bsf	___flmul@b+2,7
  6693  007C  2885               	goto	i1l2420
  6694  007D                     i1l2418:
  6695  007D  3000               	movlw	0
  6696  007E  00A9               	movwf	___flmul@b+3
  6697  007F  3000               	movlw	0
  6698  0080  00A8               	movwf	___flmul@b+2
  6699  0081  3000               	movlw	0
  6700  0082  00A7               	movwf	___flmul@b+1
  6701  0083  3000               	movlw	0
  6702  0084  00A6               	movwf	___flmul@b
  6703  0085                     i1l2420:
  6704  0085  082D               	movf	___flmul@a+3,w
  6705  0086  3980               	andlw	128
  6706  0087  00FF               	movwf	btemp+1
  6707  0088  087F               	movf	btemp+1,w
  6708  0089  06B3               	xorwf	___flmul@sign,f
  6709  008A                     i1l2422:
  6710  008A  082D               	movf	___flmul@a+3,w
  6711  008B  00AE               	movwf	??___flmul
  6712  008C  072E               	addwf	??___flmul,w
  6713  008D  00FF               	movwf	btemp+1
  6714  008E  087F               	movf	btemp+1,w
  6715  008F  00B8               	movwf	___flmul@aexp
  6716  0090                     i1l2424:
  6717  0090  1FAC               	btfss	___flmul@a+2,7
  6718  0091  2893               	goto	u299_21
  6719  0092  2894               	goto	u299_20
  6720  0093                     u299_21:
  6721  0093  2895               	goto	i1l2428
  6722  0094                     u299_20:
  6723  0094                     i1l2426:
  6724  0094  1438               	bsf	___flmul@aexp,0
  6725  0095                     i1l2428:
  6726  0095  0838               	movf	___flmul@aexp,w
  6727  0096  1903               	btfsc	3,2
  6728  0097  2899               	goto	u300_21
  6729  0098  289A               	goto	u300_20
  6730  0099                     u300_21:
  6731  0099  28A9               	goto	i1l2436
  6732  009A                     u300_20:
  6733  009A                     i1l2430:
  6734  009A  0A38               	incf	___flmul@aexp,w
  6735  009B  1D03               	btfss	3,2
  6736  009C  289E               	goto	u301_21
  6737  009D  289F               	goto	u301_20
  6738  009E                     u301_21:
  6739  009E  28A7               	goto	i1l2434
  6740  009F                     u301_20:
  6741  009F                     i1l2432:
  6742  009F  3000               	movlw	0
  6743  00A0  00AD               	movwf	___flmul@a+3
  6744  00A1  3000               	movlw	0
  6745  00A2  00AC               	movwf	___flmul@a+2
  6746  00A3  3000               	movlw	0
  6747  00A4  00AB               	movwf	___flmul@a+1
  6748  00A5  3000               	movlw	0
  6749  00A6  00AA               	movwf	___flmul@a
  6750  00A7                     i1l2434:
  6751  00A7  17AC               	bsf	___flmul@a+2,7
  6752  00A8  28B1               	goto	i1l2438
  6753  00A9                     i1l2436:
  6754  00A9  3000               	movlw	0
  6755  00AA  00AD               	movwf	___flmul@a+3
  6756  00AB  3000               	movlw	0
  6757  00AC  00AC               	movwf	___flmul@a+2
  6758  00AD  3000               	movlw	0
  6759  00AE  00AB               	movwf	___flmul@a+1
  6760  00AF  3000               	movlw	0
  6761  00B0  00AA               	movwf	___flmul@a
  6762  00B1                     i1l2438:
  6763  00B1  0838               	movf	___flmul@aexp,w
  6764  00B2  1903               	btfsc	3,2
  6765  00B3  28B5               	goto	u302_21
  6766  00B4  28B6               	goto	u302_20
  6767  00B5                     u302_21:
  6768  00B5  28BB               	goto	i1l2442
  6769  00B6                     u302_20:
  6770  00B6                     i1l2440:
  6771  00B6  0839               	movf	___flmul@bexp,w
  6772  00B7  1D03               	btfss	3,2
  6773  00B8  28BA               	goto	u303_21
  6774  00B9  28BB               	goto	u303_20
  6775  00BA                     u303_21:
  6776  00BA  28C4               	goto	i1l2446
  6777  00BB                     u303_20:
  6778  00BB                     i1l2442:
  6779  00BB  3000               	movlw	0
  6780  00BC  00A9               	movwf	?___flmul+3
  6781  00BD  3000               	movlw	0
  6782  00BE  00A8               	movwf	?___flmul+2
  6783  00BF  3000               	movlw	0
  6784  00C0  00A7               	movwf	?___flmul+1
  6785  00C1  3000               	movlw	0
  6786  00C2  00A6               	movwf	?___flmul
  6787  00C3  2BB7               	goto	i1l843
  6788  00C4                     i1l2446:
  6789  00C4  0826               	movf	___flmul@b,w
  6790  00C5  00FF               	movwf	btemp+1
  6791  00C6  087F               	movf	btemp+1,w
  6792  00C7  00F0               	movwf	__Umul8_16@multiplicand
  6793  00C8  082C               	movf	___flmul@a+2,w
  6794  00C9  120A  158A  2001  120A  118A  	fcall	__Umul8_16
  6795  00CE  0871               	movf	?__Umul8_16+1,w
  6796  00CF  1283               	bcf	3,5	;RP0=0, select bank0
  6797  00D0  1303               	bcf	3,6	;RP1=0, select bank0
  6798  00D1  00BF               	movwf	___flmul@temp+1
  6799  00D2  0870               	movf	?__Umul8_16,w
  6800  00D3  00BE               	movwf	___flmul@temp
  6801  00D4                     i1l2448:
  6802  00D4  083E               	movf	___flmul@temp,w
  6803  00D5  00AE               	movwf	??___flmul
  6804  00D6  01AF               	clrf	??___flmul+1
  6805  00D7  01B0               	clrf	??___flmul+2
  6806  00D8  01B1               	clrf	??___flmul+3
  6807  00D9  0831               	movf	??___flmul+3,w
  6808  00DA  00B7               	movwf	___flmul@grs+3
  6809  00DB  0830               	movf	??___flmul+2,w
  6810  00DC  00B6               	movwf	___flmul@grs+2
  6811  00DD  082F               	movf	??___flmul+1,w
  6812  00DE  00B5               	movwf	___flmul@grs+1
  6813  00DF  082E               	movf	??___flmul,w
  6814  00E0  00B4               	movwf	___flmul@grs
  6815  00E1                     i1l2450:
  6816  00E1  083F               	movf	___flmul@temp+1,w
  6817  00E2  00AE               	movwf	??___flmul
  6818  00E3  01AF               	clrf	??___flmul+1
  6819  00E4  01B0               	clrf	??___flmul+2
  6820  00E5  01B1               	clrf	??___flmul+3
  6821  00E6  0831               	movf	??___flmul+3,w
  6822  00E7  00BD               	movwf	___flmul@prod+3
  6823  00E8  0830               	movf	??___flmul+2,w
  6824  00E9  00BC               	movwf	___flmul@prod+2
  6825  00EA  082F               	movf	??___flmul+1,w
  6826  00EB  00BB               	movwf	___flmul@prod+1
  6827  00EC  082E               	movf	??___flmul,w
  6828  00ED  00BA               	movwf	___flmul@prod
  6829  00EE  0827               	movf	___flmul@b+1,w
  6830  00EF  00FF               	movwf	btemp+1
  6831  00F0  087F               	movf	btemp+1,w
  6832  00F1  00F0               	movwf	__Umul8_16@multiplicand
  6833  00F2  082B               	movf	___flmul@a+1,w
  6834  00F3  120A  158A  2001  120A  118A  	fcall	__Umul8_16
  6835  00F8  0871               	movf	?__Umul8_16+1,w
  6836  00F9  1283               	bcf	3,5	;RP0=0, select bank0
  6837  00FA  1303               	bcf	3,6	;RP1=0, select bank0
  6838  00FB  00BF               	movwf	___flmul@temp+1
  6839  00FC  0870               	movf	?__Umul8_16,w
  6840  00FD  00BE               	movwf	___flmul@temp
  6841  00FE                     i1l2452:
  6842  00FE  083E               	movf	___flmul@temp,w
  6843  00FF  00AE               	movwf	??___flmul
  6844  0100  01AF               	clrf	??___flmul+1
  6845  0101  01B0               	clrf	??___flmul+2
  6846  0102  01B1               	clrf	??___flmul+3
  6847  0103  082E               	movf	??___flmul,w
  6848  0104  07B4               	addwf	___flmul@grs,f
  6849  0105  082F               	movf	??___flmul+1,w
  6850  0106  1103               	clrz
  6851  0107  1803               	skipnc
  6852  0108  3E01               	addlw	1
  6853  0109  1903               	skipnz
  6854  010A  290C               	goto	u304_21
  6855  010B  07B5               	addwf	___flmul@grs+1,f
  6856  010C                     u304_21:
  6857  010C  0830               	movf	??___flmul+2,w
  6858  010D  1103               	clrz
  6859  010E  1803               	skipnc
  6860  010F  3E01               	addlw	1
  6861  0110  1903               	skipnz
  6862  0111  2913               	goto	u304_22
  6863  0112  07B6               	addwf	___flmul@grs+2,f
  6864  0113                     u304_22:
  6865  0113  0831               	movf	??___flmul+3,w
  6866  0114  1103               	clrz
  6867  0115  1803               	skipnc
  6868  0116  3E01               	addlw	1
  6869  0117  1903               	skipnz
  6870  0118  291A               	goto	u304_23
  6871  0119  07B7               	addwf	___flmul@grs+3,f
  6872  011A                     u304_23:
  6873  011A                     i1l2454:
  6874  011A  083F               	movf	___flmul@temp+1,w
  6875  011B  00AE               	movwf	??___flmul
  6876  011C  01AF               	clrf	??___flmul+1
  6877  011D  01B0               	clrf	??___flmul+2
  6878  011E  01B1               	clrf	??___flmul+3
  6879  011F  082E               	movf	??___flmul,w
  6880  0120  07BA               	addwf	___flmul@prod,f
  6881  0121  082F               	movf	??___flmul+1,w
  6882  0122  1103               	clrz
  6883  0123  1803               	skipnc
  6884  0124  3E01               	addlw	1
  6885  0125  1903               	skipnz
  6886  0126  2928               	goto	u305_21
  6887  0127  07BB               	addwf	___flmul@prod+1,f
  6888  0128                     u305_21:
  6889  0128  0830               	movf	??___flmul+2,w
  6890  0129  1103               	clrz
  6891  012A  1803               	skipnc
  6892  012B  3E01               	addlw	1
  6893  012C  1903               	skipnz
  6894  012D  292F               	goto	u305_22
  6895  012E  07BC               	addwf	___flmul@prod+2,f
  6896  012F                     u305_22:
  6897  012F  0831               	movf	??___flmul+3,w
  6898  0130  1103               	clrz
  6899  0131  1803               	skipnc
  6900  0132  3E01               	addlw	1
  6901  0133  1903               	skipnz
  6902  0134  2936               	goto	u305_23
  6903  0135  07BD               	addwf	___flmul@prod+3,f
  6904  0136                     u305_23:
  6905  0136  0828               	movf	___flmul@b+2,w
  6906  0137  00FF               	movwf	btemp+1
  6907  0138  087F               	movf	btemp+1,w
  6908  0139  00F0               	movwf	__Umul8_16@multiplicand
  6909  013A  082A               	movf	___flmul@a,w
  6910  013B  120A  158A  2001  120A  118A  	fcall	__Umul8_16
  6911  0140  0871               	movf	?__Umul8_16+1,w
  6912  0141  1283               	bcf	3,5	;RP0=0, select bank0
  6913  0142  1303               	bcf	3,6	;RP1=0, select bank0
  6914  0143  00BF               	movwf	___flmul@temp+1
  6915  0144  0870               	movf	?__Umul8_16,w
  6916  0145  00BE               	movwf	___flmul@temp
  6917  0146                     i1l2456:
  6918  0146  083E               	movf	___flmul@temp,w
  6919  0147  00AE               	movwf	??___flmul
  6920  0148  01AF               	clrf	??___flmul+1
  6921  0149  01B0               	clrf	??___flmul+2
  6922  014A  01B1               	clrf	??___flmul+3
  6923  014B  082E               	movf	??___flmul,w
  6924  014C  07B4               	addwf	___flmul@grs,f
  6925  014D  082F               	movf	??___flmul+1,w
  6926  014E  1103               	clrz
  6927  014F  1803               	skipnc
  6928  0150  3E01               	addlw	1
  6929  0151  1903               	skipnz
  6930  0152  2954               	goto	u306_21
  6931  0153  07B5               	addwf	___flmul@grs+1,f
  6932  0154                     u306_21:
  6933  0154  0830               	movf	??___flmul+2,w
  6934  0155  1103               	clrz
  6935  0156  1803               	skipnc
  6936  0157  3E01               	addlw	1
  6937  0158  1903               	skipnz
  6938  0159  295B               	goto	u306_22
  6939  015A  07B6               	addwf	___flmul@grs+2,f
  6940  015B                     u306_22:
  6941  015B  0831               	movf	??___flmul+3,w
  6942  015C  1103               	clrz
  6943  015D  1803               	skipnc
  6944  015E  3E01               	addlw	1
  6945  015F  1903               	skipnz
  6946  0160  2962               	goto	u306_23
  6947  0161  07B7               	addwf	___flmul@grs+3,f
  6948  0162                     u306_23:
  6949  0162                     i1l2458:
  6950  0162  083F               	movf	___flmul@temp+1,w
  6951  0163  00AE               	movwf	??___flmul
  6952  0164  01AF               	clrf	??___flmul+1
  6953  0165  01B0               	clrf	??___flmul+2
  6954  0166  01B1               	clrf	??___flmul+3
  6955  0167  082E               	movf	??___flmul,w
  6956  0168  07BA               	addwf	___flmul@prod,f
  6957  0169  082F               	movf	??___flmul+1,w
  6958  016A  1103               	clrz
  6959  016B  1803               	skipnc
  6960  016C  3E01               	addlw	1
  6961  016D  1903               	skipnz
  6962  016E  2970               	goto	u307_21
  6963  016F  07BB               	addwf	___flmul@prod+1,f
  6964  0170                     u307_21:
  6965  0170  0830               	movf	??___flmul+2,w
  6966  0171  1103               	clrz
  6967  0172  1803               	skipnc
  6968  0173  3E01               	addlw	1
  6969  0174  1903               	skipnz
  6970  0175  2977               	goto	u307_22
  6971  0176  07BC               	addwf	___flmul@prod+2,f
  6972  0177                     u307_22:
  6973  0177  0831               	movf	??___flmul+3,w
  6974  0178  1103               	clrz
  6975  0179  1803               	skipnc
  6976  017A  3E01               	addlw	1
  6977  017B  1903               	skipnz
  6978  017C  297E               	goto	u307_23
  6979  017D  07BD               	addwf	___flmul@prod+3,f
  6980  017E                     u307_23:
  6981  017E                     i1l2460:
  6982  017E  3008               	movlw	8
  6983  017F  00AE               	movwf	??___flmul
  6984  0180                     u308_25:
  6985  0180  1003               	clrc
  6986  0181  0DB4               	rlf	___flmul@grs,f
  6987  0182  0DB5               	rlf	___flmul@grs+1,f
  6988  0183  0DB6               	rlf	___flmul@grs+2,f
  6989  0184  0DB7               	rlf	___flmul@grs+3,f
  6990  0185  0BAE               	decfsz	??___flmul,f
  6991  0186  2980               	goto	u308_25
  6992  0187                     i1l2462:
  6993  0187  0827               	movf	___flmul@b+1,w
  6994  0188  00FF               	movwf	btemp+1
  6995  0189  087F               	movf	btemp+1,w
  6996  018A  00F0               	movwf	__Umul8_16@multiplicand
  6997  018B  082A               	movf	___flmul@a,w
  6998  018C  120A  158A  2001  120A  118A  	fcall	__Umul8_16
  6999  0191  0871               	movf	?__Umul8_16+1,w
  7000  0192  1283               	bcf	3,5	;RP0=0, select bank0
  7001  0193  1303               	bcf	3,6	;RP1=0, select bank0
  7002  0194  00BF               	movwf	___flmul@temp+1
  7003  0195  0870               	movf	?__Umul8_16,w
  7004  0196  00BE               	movwf	___flmul@temp
  7005  0197                     i1l2464:
  7006  0197  083E               	movf	___flmul@temp,w
  7007  0198  00AE               	movwf	??___flmul
  7008  0199  083F               	movf	___flmul@temp+1,w
  7009  019A  00AF               	movwf	??___flmul+1
  7010  019B  01B0               	clrf	??___flmul+2
  7011  019C  01B1               	clrf	??___flmul+3
  7012  019D  082E               	movf	??___flmul,w
  7013  019E  07B4               	addwf	___flmul@grs,f
  7014  019F  082F               	movf	??___flmul+1,w
  7015  01A0  1103               	clrz
  7016  01A1  1803               	skipnc
  7017  01A2  3E01               	addlw	1
  7018  01A3  1903               	skipnz
  7019  01A4  29A6               	goto	u309_21
  7020  01A5  07B5               	addwf	___flmul@grs+1,f
  7021  01A6                     u309_21:
  7022  01A6  0830               	movf	??___flmul+2,w
  7023  01A7  1103               	clrz
  7024  01A8  1803               	skipnc
  7025  01A9  3E01               	addlw	1
  7026  01AA  1903               	skipnz
  7027  01AB  29AD               	goto	u309_22
  7028  01AC  07B6               	addwf	___flmul@grs+2,f
  7029  01AD                     u309_22:
  7030  01AD  0831               	movf	??___flmul+3,w
  7031  01AE  1103               	clrz
  7032  01AF  1803               	skipnc
  7033  01B0  3E01               	addlw	1
  7034  01B1  1903               	skipnz
  7035  01B2  29B4               	goto	u309_23
  7036  01B3  07B7               	addwf	___flmul@grs+3,f
  7037  01B4                     u309_23:
  7038  01B4                     i1l2466:
  7039  01B4  0826               	movf	___flmul@b,w
  7040  01B5  00FF               	movwf	btemp+1
  7041  01B6  087F               	movf	btemp+1,w
  7042  01B7  00F0               	movwf	__Umul8_16@multiplicand
  7043  01B8  082B               	movf	___flmul@a+1,w
  7044  01B9  120A  158A  2001  120A  118A  	fcall	__Umul8_16
  7045  01BE  0871               	movf	?__Umul8_16+1,w
  7046  01BF  1283               	bcf	3,5	;RP0=0, select bank0
  7047  01C0  1303               	bcf	3,6	;RP1=0, select bank0
  7048  01C1  00BF               	movwf	___flmul@temp+1
  7049  01C2  0870               	movf	?__Umul8_16,w
  7050  01C3  00BE               	movwf	___flmul@temp
  7051  01C4                     i1l2468:
  7052  01C4  083E               	movf	___flmul@temp,w
  7053  01C5  00AE               	movwf	??___flmul
  7054  01C6  083F               	movf	___flmul@temp+1,w
  7055  01C7  00AF               	movwf	??___flmul+1
  7056  01C8  01B0               	clrf	??___flmul+2
  7057  01C9  01B1               	clrf	??___flmul+3
  7058  01CA  082E               	movf	??___flmul,w
  7059  01CB  07B4               	addwf	___flmul@grs,f
  7060  01CC  082F               	movf	??___flmul+1,w
  7061  01CD  1103               	clrz
  7062  01CE  1803               	skipnc
  7063  01CF  3E01               	addlw	1
  7064  01D0  1903               	skipnz
  7065  01D1  29D3               	goto	u310_21
  7066  01D2  07B5               	addwf	___flmul@grs+1,f
  7067  01D3                     u310_21:
  7068  01D3  0830               	movf	??___flmul+2,w
  7069  01D4  1103               	clrz
  7070  01D5  1803               	skipnc
  7071  01D6  3E01               	addlw	1
  7072  01D7  1903               	skipnz
  7073  01D8  29DA               	goto	u310_22
  7074  01D9  07B6               	addwf	___flmul@grs+2,f
  7075  01DA                     u310_22:
  7076  01DA  0831               	movf	??___flmul+3,w
  7077  01DB  1103               	clrz
  7078  01DC  1803               	skipnc
  7079  01DD  3E01               	addlw	1
  7080  01DE  1903               	skipnz
  7081  01DF  29E1               	goto	u310_23
  7082  01E0  07B7               	addwf	___flmul@grs+3,f
  7083  01E1                     u310_23:
  7084  01E1                     i1l2470:
  7085  01E1  3008               	movlw	8
  7086  01E2  00AE               	movwf	??___flmul
  7087  01E3                     u311_25:
  7088  01E3  1003               	clrc
  7089  01E4  0DB4               	rlf	___flmul@grs,f
  7090  01E5  0DB5               	rlf	___flmul@grs+1,f
  7091  01E6  0DB6               	rlf	___flmul@grs+2,f
  7092  01E7  0DB7               	rlf	___flmul@grs+3,f
  7093  01E8  0BAE               	decfsz	??___flmul,f
  7094  01E9  29E3               	goto	u311_25
  7095  01EA  0826               	movf	___flmul@b,w
  7096  01EB  00FF               	movwf	btemp+1
  7097  01EC  087F               	movf	btemp+1,w
  7098  01ED  00F0               	movwf	__Umul8_16@multiplicand
  7099  01EE  082A               	movf	___flmul@a,w
  7100  01EF  120A  158A  2001  120A  118A  	fcall	__Umul8_16
  7101  01F4  0871               	movf	?__Umul8_16+1,w
  7102  01F5  1283               	bcf	3,5	;RP0=0, select bank0
  7103  01F6  1303               	bcf	3,6	;RP1=0, select bank0
  7104  01F7  00BF               	movwf	___flmul@temp+1
  7105  01F8  0870               	movf	?__Umul8_16,w
  7106  01F9  00BE               	movwf	___flmul@temp
  7107  01FA                     i1l2472:
  7108  01FA  083E               	movf	___flmul@temp,w
  7109  01FB  00AE               	movwf	??___flmul
  7110  01FC  083F               	movf	___flmul@temp+1,w
  7111  01FD  00AF               	movwf	??___flmul+1
  7112  01FE  01B0               	clrf	??___flmul+2
  7113  01FF  01B1               	clrf	??___flmul+3
  7114  0200  082E               	movf	??___flmul,w
  7115  0201  07B4               	addwf	___flmul@grs,f
  7116  0202  082F               	movf	??___flmul+1,w
  7117  0203  1103               	clrz
  7118  0204  1803               	skipnc
  7119  0205  3E01               	addlw	1
  7120  0206  1903               	skipnz
  7121  0207  2A09               	goto	u312_21
  7122  0208  07B5               	addwf	___flmul@grs+1,f
  7123  0209                     u312_21:
  7124  0209  0830               	movf	??___flmul+2,w
  7125  020A  1103               	clrz
  7126  020B  1803               	skipnc
  7127  020C  3E01               	addlw	1
  7128  020D  1903               	skipnz
  7129  020E  2A10               	goto	u312_22
  7130  020F  07B6               	addwf	___flmul@grs+2,f
  7131  0210                     u312_22:
  7132  0210  0831               	movf	??___flmul+3,w
  7133  0211  1103               	clrz
  7134  0212  1803               	skipnc
  7135  0213  3E01               	addlw	1
  7136  0214  1903               	skipnz
  7137  0215  2A17               	goto	u312_23
  7138  0216  07B7               	addwf	___flmul@grs+3,f
  7139  0217                     u312_23:
  7140  0217                     i1l2474:
  7141  0217  0827               	movf	___flmul@b+1,w
  7142  0218  00FF               	movwf	btemp+1
  7143  0219  087F               	movf	btemp+1,w
  7144  021A  00F0               	movwf	__Umul8_16@multiplicand
  7145  021B  082C               	movf	___flmul@a+2,w
  7146  021C  120A  158A  2001  120A  118A  	fcall	__Umul8_16
  7147  0221  0871               	movf	?__Umul8_16+1,w
  7148  0222  1283               	bcf	3,5	;RP0=0, select bank0
  7149  0223  1303               	bcf	3,6	;RP1=0, select bank0
  7150  0224  00BF               	movwf	___flmul@temp+1
  7151  0225  0870               	movf	?__Umul8_16,w
  7152  0226  00BE               	movwf	___flmul@temp
  7153  0227  083E               	movf	___flmul@temp,w
  7154  0228  00AE               	movwf	??___flmul
  7155  0229  083F               	movf	___flmul@temp+1,w
  7156  022A  00AF               	movwf	??___flmul+1
  7157  022B  01B0               	clrf	??___flmul+2
  7158  022C  01B1               	clrf	??___flmul+3
  7159  022D  082E               	movf	??___flmul,w
  7160  022E  07BA               	addwf	___flmul@prod,f
  7161  022F  082F               	movf	??___flmul+1,w
  7162  0230  1103               	clrz
  7163  0231  1803               	skipnc
  7164  0232  3E01               	addlw	1
  7165  0233  1903               	skipnz
  7166  0234  2A36               	goto	u313_21
  7167  0235  07BB               	addwf	___flmul@prod+1,f
  7168  0236                     u313_21:
  7169  0236  0830               	movf	??___flmul+2,w
  7170  0237  1103               	clrz
  7171  0238  1803               	skipnc
  7172  0239  3E01               	addlw	1
  7173  023A  1903               	skipnz
  7174  023B  2A3D               	goto	u313_22
  7175  023C  07BC               	addwf	___flmul@prod+2,f
  7176  023D                     u313_22:
  7177  023D  0831               	movf	??___flmul+3,w
  7178  023E  1103               	clrz
  7179  023F  1803               	skipnc
  7180  0240  3E01               	addlw	1
  7181  0241  1903               	skipnz
  7182  0242  2A44               	goto	u313_23
  7183  0243  07BD               	addwf	___flmul@prod+3,f
  7184  0244                     u313_23:
  7185  0244                     i1l2476:
  7186  0244  0828               	movf	___flmul@b+2,w
  7187  0245  00FF               	movwf	btemp+1
  7188  0246  087F               	movf	btemp+1,w
  7189  0247  00F0               	movwf	__Umul8_16@multiplicand
  7190  0248  082B               	movf	___flmul@a+1,w
  7191  0249  120A  158A  2001  120A  118A  	fcall	__Umul8_16
  7192  024E  0871               	movf	?__Umul8_16+1,w
  7193  024F  1283               	bcf	3,5	;RP0=0, select bank0
  7194  0250  1303               	bcf	3,6	;RP1=0, select bank0
  7195  0251  00BF               	movwf	___flmul@temp+1
  7196  0252  0870               	movf	?__Umul8_16,w
  7197  0253  00BE               	movwf	___flmul@temp
  7198  0254                     i1l2478:
  7199  0254  083E               	movf	___flmul@temp,w
  7200  0255  00AE               	movwf	??___flmul
  7201  0256  083F               	movf	___flmul@temp+1,w
  7202  0257  00AF               	movwf	??___flmul+1
  7203  0258  01B0               	clrf	??___flmul+2
  7204  0259  01B1               	clrf	??___flmul+3
  7205  025A  082E               	movf	??___flmul,w
  7206  025B  07BA               	addwf	___flmul@prod,f
  7207  025C  082F               	movf	??___flmul+1,w
  7208  025D  1103               	clrz
  7209  025E  1803               	skipnc
  7210  025F  3E01               	addlw	1
  7211  0260  1903               	skipnz
  7212  0261  2A63               	goto	u314_21
  7213  0262  07BB               	addwf	___flmul@prod+1,f
  7214  0263                     u314_21:
  7215  0263  0830               	movf	??___flmul+2,w
  7216  0264  1103               	clrz
  7217  0265  1803               	skipnc
  7218  0266  3E01               	addlw	1
  7219  0267  1903               	skipnz
  7220  0268  2A6A               	goto	u314_22
  7221  0269  07BC               	addwf	___flmul@prod+2,f
  7222  026A                     u314_22:
  7223  026A  0831               	movf	??___flmul+3,w
  7224  026B  1103               	clrz
  7225  026C  1803               	skipnc
  7226  026D  3E01               	addlw	1
  7227  026E  1903               	skipnz
  7228  026F  2A71               	goto	u314_23
  7229  0270  07BD               	addwf	___flmul@prod+3,f
  7230  0271                     u314_23:
  7231  0271  0828               	movf	___flmul@b+2,w
  7232  0272  00FF               	movwf	btemp+1
  7233  0273  087F               	movf	btemp+1,w
  7234  0274  00F0               	movwf	__Umul8_16@multiplicand
  7235  0275  082C               	movf	___flmul@a+2,w
  7236  0276  120A  158A  2001  120A  118A  	fcall	__Umul8_16
  7237  027B  0871               	movf	?__Umul8_16+1,w
  7238  027C  1283               	bcf	3,5	;RP0=0, select bank0
  7239  027D  1303               	bcf	3,6	;RP1=0, select bank0
  7240  027E  00BF               	movwf	___flmul@temp+1
  7241  027F  0870               	movf	?__Umul8_16,w
  7242  0280  00BE               	movwf	___flmul@temp
  7243  0281                     i1l2480:
  7244  0281  083E               	movf	___flmul@temp,w
  7245  0282  00AE               	movwf	??___flmul
  7246  0283  083F               	movf	___flmul@temp+1,w
  7247  0284  00AF               	movwf	??___flmul+1
  7248  0285  01B0               	clrf	??___flmul+2
  7249  0286  01B1               	clrf	??___flmul+3
  7250  0287  3008               	movlw	8
  7251  0288                     u315_25:
  7252  0288  1003               	clrc
  7253  0289  0DAE               	rlf	??___flmul,f
  7254  028A  0DAF               	rlf	??___flmul+1,f
  7255  028B  0DB0               	rlf	??___flmul+2,f
  7256  028C  0DB1               	rlf	??___flmul+3,f
  7257  028D                     u315_20:
  7258  028D  3EFF               	addlw	-1
  7259  028E  1D03               	skipz
  7260  028F  2A88               	goto	u315_25
  7261  0290  082E               	movf	??___flmul,w
  7262  0291  07BA               	addwf	___flmul@prod,f
  7263  0292  082F               	movf	??___flmul+1,w
  7264  0293  1103               	clrz
  7265  0294  1803               	skipnc
  7266  0295  3E01               	addlw	1
  7267  0296  1903               	skipnz
  7268  0297  2A99               	goto	u316_21
  7269  0298  07BB               	addwf	___flmul@prod+1,f
  7270  0299                     u316_21:
  7271  0299  0830               	movf	??___flmul+2,w
  7272  029A  1103               	clrz
  7273  029B  1803               	skipnc
  7274  029C  3E01               	addlw	1
  7275  029D  1903               	skipnz
  7276  029E  2AA0               	goto	u316_22
  7277  029F  07BC               	addwf	___flmul@prod+2,f
  7278  02A0                     u316_22:
  7279  02A0  0831               	movf	??___flmul+3,w
  7280  02A1  1103               	clrz
  7281  02A2  1803               	skipnc
  7282  02A3  3E01               	addlw	1
  7283  02A4  1903               	skipnz
  7284  02A5  2AA7               	goto	u316_23
  7285  02A6  07BD               	addwf	___flmul@prod+3,f
  7286  02A7                     u316_23:
  7287  02A7                     i1l2482:
  7288  02A7  0834               	movf	___flmul@grs,w
  7289  02A8  00AE               	movwf	??___flmul
  7290  02A9  0835               	movf	___flmul@grs+1,w
  7291  02AA  00AF               	movwf	??___flmul+1
  7292  02AB  0836               	movf	___flmul@grs+2,w
  7293  02AC  00B0               	movwf	??___flmul+2
  7294  02AD  0837               	movf	___flmul@grs+3,w
  7295  02AE  00B1               	movwf	??___flmul+3
  7296  02AF  3018               	movlw	24
  7297  02B0                     u317_25:
  7298  02B0  1003               	clrc
  7299  02B1  0CB1               	rrf	??___flmul+3,f
  7300  02B2  0CB0               	rrf	??___flmul+2,f
  7301  02B3  0CAF               	rrf	??___flmul+1,f
  7302  02B4  0CAE               	rrf	??___flmul,f
  7303  02B5                     u317_20:
  7304  02B5  3EFF               	addlw	-1
  7305  02B6  1D03               	skipz
  7306  02B7  2AB0               	goto	u317_25
  7307  02B8  082E               	movf	??___flmul,w
  7308  02B9  07BA               	addwf	___flmul@prod,f
  7309  02BA  082F               	movf	??___flmul+1,w
  7310  02BB  1103               	clrz
  7311  02BC  1803               	skipnc
  7312  02BD  3E01               	addlw	1
  7313  02BE  1903               	skipnz
  7314  02BF  2AC1               	goto	u318_21
  7315  02C0  07BB               	addwf	___flmul@prod+1,f
  7316  02C1                     u318_21:
  7317  02C1  0830               	movf	??___flmul+2,w
  7318  02C2  1103               	clrz
  7319  02C3  1803               	skipnc
  7320  02C4  3E01               	addlw	1
  7321  02C5  1903               	skipnz
  7322  02C6  2AC8               	goto	u318_22
  7323  02C7  07BC               	addwf	___flmul@prod+2,f
  7324  02C8                     u318_22:
  7325  02C8  0831               	movf	??___flmul+3,w
  7326  02C9  1103               	clrz
  7327  02CA  1803               	skipnc
  7328  02CB  3E01               	addlw	1
  7329  02CC  1903               	skipnz
  7330  02CD  2ACF               	goto	u318_23
  7331  02CE  07BD               	addwf	___flmul@prod+3,f
  7332  02CF                     u318_23:
  7333  02CF                     i1l2484:
  7334  02CF  3008               	movlw	8
  7335  02D0  00AE               	movwf	??___flmul
  7336  02D1                     u319_25:
  7337  02D1  1003               	clrc
  7338  02D2  0DB4               	rlf	___flmul@grs,f
  7339  02D3  0DB5               	rlf	___flmul@grs+1,f
  7340  02D4  0DB6               	rlf	___flmul@grs+2,f
  7341  02D5  0DB7               	rlf	___flmul@grs+3,f
  7342  02D6  0BAE               	decfsz	??___flmul,f
  7343  02D7  2AD1               	goto	u319_25
  7344  02D8                     i1l2486:
  7345  02D8  0839               	movf	___flmul@bexp,w
  7346  02D9  0738               	addwf	___flmul@aexp,w
  7347  02DA  00AE               	movwf	??___flmul
  7348  02DB  01AF               	clrf	??___flmul+1
  7349  02DC  0DAF               	rlf	??___flmul+1,f
  7350  02DD  082E               	movf	??___flmul,w
  7351  02DE  3E82               	addlw	130
  7352  02DF  00BE               	movwf	___flmul@temp
  7353  02E0  082F               	movf	??___flmul+1,w
  7354  02E1  1803               	skipnc
  7355  02E2  3E01               	addlw	1
  7356  02E3  3EFF               	addlw	255
  7357  02E4  00BF               	movwf	___flmul@temp+1
  7358  02E5  2B03               	goto	i1l2498
  7359  02E6                     i1l2488:
  7360  02E6  3001               	movlw	1
  7361  02E7  00AE               	movwf	??___flmul
  7362  02E8                     u320_25:
  7363  02E8  1003               	clrc
  7364  02E9  0DBA               	rlf	___flmul@prod,f
  7365  02EA  0DBB               	rlf	___flmul@prod+1,f
  7366  02EB  0DBC               	rlf	___flmul@prod+2,f
  7367  02EC  0DBD               	rlf	___flmul@prod+3,f
  7368  02ED  0BAE               	decfsz	??___flmul,f
  7369  02EE  2AE8               	goto	u320_25
  7370  02EF                     i1l2490:
  7371  02EF  1FB7               	btfss	___flmul@grs+3,7
  7372  02F0  2AF2               	goto	u321_21
  7373  02F1  2AF3               	goto	u321_20
  7374  02F2                     u321_21:
  7375  02F2  2AF4               	goto	i1l2494
  7376  02F3                     u321_20:
  7377  02F3                     i1l2492:
  7378  02F3  143A               	bsf	___flmul@prod,0
  7379  02F4                     i1l2494:
  7380  02F4  3001               	movlw	1
  7381  02F5  00AE               	movwf	??___flmul
  7382  02F6                     u322_25:
  7383  02F6  1003               	clrc
  7384  02F7  0DB4               	rlf	___flmul@grs,f
  7385  02F8  0DB5               	rlf	___flmul@grs+1,f
  7386  02F9  0DB6               	rlf	___flmul@grs+2,f
  7387  02FA  0DB7               	rlf	___flmul@grs+3,f
  7388  02FB  0BAE               	decfsz	??___flmul,f
  7389  02FC  2AF6               	goto	u322_25
  7390  02FD                     i1l2496:
  7391  02FD  30FF               	movlw	255
  7392  02FE  07BE               	addwf	___flmul@temp,f
  7393  02FF  1803               	skipnc
  7394  0300  0ABF               	incf	___flmul@temp+1,f
  7395  0301  30FF               	movlw	255
  7396  0302  07BF               	addwf	___flmul@temp+1,f
  7397  0303                     i1l2498:
  7398  0303  1FBC               	btfss	___flmul@prod+2,7
  7399  0304  2B06               	goto	u323_21
  7400  0305  2B07               	goto	u323_20
  7401  0306                     u323_21:
  7402  0306  2AE6               	goto	i1l2488
  7403  0307                     u323_20:
  7404  0307                     i1l2500:
  7405  0307  01B8               	clrf	___flmul@aexp
  7406  0308                     i1l2502:
  7407  0308  1FB7               	btfss	___flmul@grs+3,7
  7408  0309  2B0B               	goto	u324_21
  7409  030A  2B0C               	goto	u324_20
  7410  030B                     u324_21:
  7411  030B  2B28               	goto	i1l2510
  7412  030C                     u324_20:
  7413  030C                     i1l2504:
  7414  030C  30FF               	movlw	255
  7415  030D  0534               	andwf	___flmul@grs,w
  7416  030E  00AE               	movwf	??___flmul
  7417  030F  30FF               	movlw	255
  7418  0310  0535               	andwf	___flmul@grs+1,w
  7419  0311  00AF               	movwf	??___flmul+1
  7420  0312  30FF               	movlw	255
  7421  0313  0536               	andwf	___flmul@grs+2,w
  7422  0314  00B0               	movwf	??___flmul+2
  7423  0315  307F               	movlw	127
  7424  0316  0537               	andwf	___flmul@grs+3,w
  7425  0317  00B1               	movwf	??___flmul+3
  7426  0318  0831               	movf	??___flmul+3,w
  7427  0319  0430               	iorwf	??___flmul+2,w
  7428  031A  042F               	iorwf	??___flmul+1,w
  7429  031B  042E               	iorwf	??___flmul,w
  7430  031C  1903               	skipnz
  7431  031D  2B1F               	goto	u325_21
  7432  031E  2B20               	goto	u325_20
  7433  031F                     u325_21:
  7434  031F  2B23               	goto	i1l849
  7435  0320                     u325_20:
  7436  0320                     i1l2506:
  7437  0320  01B8               	clrf	___flmul@aexp
  7438  0321  0AB8               	incf	___flmul@aexp,f
  7439  0322  2B28               	goto	i1l2510
  7440  0323                     i1l849:
  7441  0323  1C3A               	btfss	___flmul@prod,0
  7442  0324  2B26               	goto	u326_21
  7443  0325  2B27               	goto	u326_20
  7444  0326                     u326_21:
  7445  0326  2B28               	goto	i1l2510
  7446  0327                     u326_20:
  7447  0327  2B20               	goto	i1l2506
  7448  0328                     i1l2510:
  7449  0328  0838               	movf	___flmul@aexp,w
  7450  0329  1903               	btfsc	3,2
  7451  032A  2B2C               	goto	u327_21
  7452  032B  2B2D               	goto	u327_20
  7453  032C                     u327_21:
  7454  032C  2B5E               	goto	i1l2520
  7455  032D                     u327_20:
  7456  032D                     i1l2512:
  7457  032D  3001               	movlw	1
  7458  032E  07BA               	addwf	___flmul@prod,f
  7459  032F  3000               	movlw	0
  7460  0330  1803               	skipnc
  7461  0331  3001               	movlw	1
  7462  0332  07BB               	addwf	___flmul@prod+1,f
  7463  0333  3000               	movlw	0
  7464  0334  1803               	skipnc
  7465  0335  3001               	movlw	1
  7466  0336  07BC               	addwf	___flmul@prod+2,f
  7467  0337  3000               	movlw	0
  7468  0338  1803               	skipnc
  7469  0339  3001               	movlw	1
  7470  033A  07BD               	addwf	___flmul@prod+3,f
  7471  033B                     i1l2514:
  7472  033B  1C3D               	btfss	___flmul@prod+3,0
  7473  033C  2B3E               	goto	u328_21
  7474  033D  2B3F               	goto	u328_20
  7475  033E                     u328_21:
  7476  033E  2B5E               	goto	i1l2520
  7477  033F                     u328_20:
  7478  033F                     i1l2516:
  7479  033F  083A               	movf	___flmul@prod,w
  7480  0340  00AE               	movwf	??___flmul
  7481  0341  083B               	movf	___flmul@prod+1,w
  7482  0342  00AF               	movwf	??___flmul+1
  7483  0343  083C               	movf	___flmul@prod+2,w
  7484  0344  00B0               	movwf	??___flmul+2
  7485  0345  083D               	movf	___flmul@prod+3,w
  7486  0346  00B1               	movwf	??___flmul+3
  7487  0347  3001               	movlw	1
  7488  0348  00B2               	movwf	??___flmul+4
  7489  0349                     u329_25:
  7490  0349  0D31               	rlf	??___flmul+3,w
  7491  034A  0CB1               	rrf	??___flmul+3,f
  7492  034B  0CB0               	rrf	??___flmul+2,f
  7493  034C  0CAF               	rrf	??___flmul+1,f
  7494  034D  0CAE               	rrf	??___flmul,f
  7495  034E                     u329_20:
  7496  034E  0BB2               	decfsz	??___flmul+4,f
  7497  034F  2B49               	goto	u329_25
  7498  0350  0831               	movf	??___flmul+3,w
  7499  0351  00BD               	movwf	___flmul@prod+3
  7500  0352  0830               	movf	??___flmul+2,w
  7501  0353  00BC               	movwf	___flmul@prod+2
  7502  0354  082F               	movf	??___flmul+1,w
  7503  0355  00BB               	movwf	___flmul@prod+1
  7504  0356  082E               	movf	??___flmul,w
  7505  0357  00BA               	movwf	___flmul@prod
  7506  0358                     i1l2518:
  7507  0358  3001               	movlw	1
  7508  0359  07BE               	addwf	___flmul@temp,f
  7509  035A  1803               	skipnc
  7510  035B  0ABF               	incf	___flmul@temp+1,f
  7511  035C  3000               	movlw	0
  7512  035D  07BF               	addwf	___flmul@temp+1,f
  7513  035E                     i1l2520:
  7514  035E  083F               	movf	___flmul@temp+1,w
  7515  035F  3A80               	xorlw	128
  7516  0360  00FF               	movwf	btemp+1
  7517  0361  3080               	movlw	128
  7518  0362  027F               	subwf	btemp+1,w
  7519  0363  1D03               	skipz
  7520  0364  2B67               	goto	u330_25
  7521  0365  30FF               	movlw	255
  7522  0366  023E               	subwf	___flmul@temp,w
  7523  0367                     u330_25:
  7524  0367  1C03               	skipc
  7525  0368  2B6A               	goto	u330_21
  7526  0369  2B6B               	goto	u330_20
  7527  036A                     u330_21:
  7528  036A  2B76               	goto	i1l2524
  7529  036B                     u330_20:
  7530  036B                     i1l2522:
  7531  036B  307F               	movlw	127
  7532  036C  1283               	bcf	3,5	;RP0=0, select bank0
  7533  036D  1303               	bcf	3,6	;RP1=0, select bank0
  7534  036E  00BD               	movwf	___flmul@prod+3
  7535  036F  3080               	movlw	128
  7536  0370  00BC               	movwf	___flmul@prod+2
  7537  0371  3000               	movlw	0
  7538  0372  00BB               	movwf	___flmul@prod+1
  7539  0373  3000               	movlw	0
  7540  0374  00BA               	movwf	___flmul@prod
  7541  0375  2BAB               	goto	i1l855
  7542  0376                     i1l2524:
  7543  0376  1283               	bcf	3,5	;RP0=0, select bank0
  7544  0377  1303               	bcf	3,6	;RP1=0, select bank0
  7545  0378  083F               	movf	___flmul@temp+1,w
  7546  0379  3A80               	xorlw	128
  7547  037A  00FF               	movwf	btemp+1
  7548  037B  3080               	movlw	128
  7549  037C  027F               	subwf	btemp+1,w
  7550  037D  1D03               	skipz
  7551  037E  2B81               	goto	u331_25
  7552  037F  3001               	movlw	1
  7553  0380  023E               	subwf	___flmul@temp,w
  7554  0381                     u331_25:
  7555  0381  1803               	skipnc
  7556  0382  2B84               	goto	u331_21
  7557  0383  2B85               	goto	u331_20
  7558  0384                     u331_21:
  7559  0384  2B91               	goto	i1l2530
  7560  0385                     u331_20:
  7561  0385                     i1l2526:
  7562  0385  3000               	movlw	0
  7563  0386  1283               	bcf	3,5	;RP0=0, select bank0
  7564  0387  1303               	bcf	3,6	;RP1=0, select bank0
  7565  0388  00BD               	movwf	___flmul@prod+3
  7566  0389  3000               	movlw	0
  7567  038A  00BC               	movwf	___flmul@prod+2
  7568  038B  3000               	movlw	0
  7569  038C  00BB               	movwf	___flmul@prod+1
  7570  038D  3000               	movlw	0
  7571  038E  00BA               	movwf	___flmul@prod
  7572  038F                     i1l2528:
  7573  038F  01B3               	clrf	___flmul@sign
  7574  0390  2BAB               	goto	i1l855
  7575  0391                     i1l2530:
  7576  0391  1283               	bcf	3,5	;RP0=0, select bank0
  7577  0392  1303               	bcf	3,6	;RP1=0, select bank0
  7578  0393  083E               	movf	___flmul@temp,w
  7579  0394  00FF               	movwf	btemp+1
  7580  0395  087F               	movf	btemp+1,w
  7581  0396  00B9               	movwf	___flmul@bexp
  7582  0397                     i1l2532:
  7583  0397  30FF               	movlw	255
  7584  0398  05BA               	andwf	___flmul@prod,f
  7585  0399  30FF               	movlw	255
  7586  039A  05BB               	andwf	___flmul@prod+1,f
  7587  039B  307F               	movlw	127
  7588  039C  05BC               	andwf	___flmul@prod+2,f
  7589  039D  3000               	movlw	0
  7590  039E  05BD               	andwf	___flmul@prod+3,f
  7591  039F                     i1l2534:
  7592  039F  1C39               	btfss	___flmul@bexp,0
  7593  03A0  2BA2               	goto	u332_21
  7594  03A1  2BA3               	goto	u332_20
  7595  03A2                     u332_21:
  7596  03A2  2BA4               	goto	i1l2538
  7597  03A3                     u332_20:
  7598  03A3                     i1l2536:
  7599  03A3  17BC               	bsf	___flmul@prod+2,7
  7600  03A4                     i1l2538:
  7601  03A4  0839               	movf	___flmul@bexp,w
  7602  03A5  00AE               	movwf	??___flmul
  7603  03A6  1003               	clrc
  7604  03A7  0C2E               	rrf	??___flmul,w
  7605  03A8  00FF               	movwf	btemp+1
  7606  03A9  087F               	movf	btemp+1,w
  7607  03AA  00BD               	movwf	___flmul@prod+3
  7608  03AB                     i1l855:
  7609  03AB  0833               	movf	___flmul@sign,w
  7610  03AC  00FF               	movwf	btemp+1
  7611  03AD  087F               	movf	btemp+1,w
  7612  03AE  04BD               	iorwf	___flmul@prod+3,f
  7613  03AF                     i1l2540:
  7614  03AF  083D               	movf	___flmul@prod+3,w
  7615  03B0  00A9               	movwf	?___flmul+3
  7616  03B1  083C               	movf	___flmul@prod+2,w
  7617  03B2  00A8               	movwf	?___flmul+2
  7618  03B3  083B               	movf	___flmul@prod+1,w
  7619  03B4  00A7               	movwf	?___flmul+1
  7620  03B5  083A               	movf	___flmul@prod,w
  7621  03B6  00A6               	movwf	?___flmul
  7622  03B7                     i1l843:
  7623  03B7  0008               	return
  7624  03B8                     __end_of___flmul:
  7625                           
  7626                           	psect	text35
  7627  0801                     __ptext35:	
  7628 ;; *************** function __Umul8_16 *****************
  7629 ;; Defined at:
  7630 ;;		line 4 in file "C:\Program Files\Microchip\xc8\v2.20\pic\sources\c90\common\Umul8_16.c"
  7631 ;; Parameters:    Size  Location     Type
  7632 ;;  multiplier      1    wreg     unsigned char 
  7633 ;;  multiplicand    1    0[COMMON] unsigned char 
  7634 ;; Auto vars:     Size  Location     Type
  7635 ;;  multiplier      1    8[COMMON] unsigned char 
  7636 ;;  word_mpld       2    6[COMMON] unsigned int 
  7637 ;;  product         2    4[COMMON] unsigned int 
  7638 ;; Return value:  Size  Location     Type
  7639 ;;                  2    0[COMMON] unsigned int 
  7640 ;; Registers used:
  7641 ;;		wreg, status,2, status,0
  7642 ;; Tracked objects:
  7643 ;;		On entry : 0/0
  7644 ;;		On exit  : 0/0
  7645 ;;		Unchanged: 0/0
  7646 ;; Data sizes:     COMMON   BANK0   BANK1   BANK3   BANK2
  7647 ;;      Params:         2       0       0       0       0
  7648 ;;      Locals:         5       0       0       0       0
  7649 ;;      Temps:          2       0       0       0       0
  7650 ;;      Totals:         9       0       0       0       0
  7651 ;;Total ram usage:        9 bytes
  7652 ;; Hardware stack levels used:    1
  7653 ;; This function calls:
  7654 ;;		Nothing
  7655 ;; This function is called by:
  7656 ;;		___flmul
  7657 ;; This function uses a non-reentrant model
  7658 ;;
  7659                           
  7660                           
  7661                           ;psect for function __Umul8_16
  7662  0801                     __Umul8_16:
  7663                           
  7664                           ;incstack = 0
  7665                           ; Regs used in __Umul8_16: [wreg+status,2+status,0]
  7666                           ;__Umul8_16@multiplier stored from wreg
  7667  0801  00F8               	movwf	__Umul8_16@multiplier
  7668  0802                     i1l2196:
  7669  0802  01F4               	clrf	__Umul8_16@product
  7670  0803  01F5               	clrf	__Umul8_16@product+1
  7671  0804                     i1l2198:
  7672  0804  0870               	movf	__Umul8_16@multiplicand,w
  7673  0805  00F2               	movwf	??__Umul8_16
  7674  0806  01F3               	clrf	??__Umul8_16+1
  7675  0807  0872               	movf	??__Umul8_16,w
  7676  0808  00F6               	movwf	__Umul8_16@word_mpld
  7677  0809  0873               	movf	??__Umul8_16+1,w
  7678  080A  00F7               	movwf	__Umul8_16@word_mpld+1
  7679  080B                     i1l2200:
  7680  080B  1C78               	btfss	__Umul8_16@multiplier,0
  7681  080C  280E               	goto	u259_21
  7682  080D  280F               	goto	u259_20
  7683  080E                     u259_21:
  7684  080E  2815               	goto	i1l862
  7685  080F                     u259_20:
  7686  080F                     i1l2202:
  7687  080F  0876               	movf	__Umul8_16@word_mpld,w
  7688  0810  07F4               	addwf	__Umul8_16@product,f
  7689  0811  1803               	skipnc
  7690  0812  0AF5               	incf	__Umul8_16@product+1,f
  7691  0813  0877               	movf	__Umul8_16@word_mpld+1,w
  7692  0814  07F5               	addwf	__Umul8_16@product+1,f
  7693  0815                     i1l862:
  7694  0815  3001               	movlw	1
  7695  0816                     u260_25:
  7696  0816  1003               	clrc
  7697  0817  0DF6               	rlf	__Umul8_16@word_mpld,f
  7698  0818  0DF7               	rlf	__Umul8_16@word_mpld+1,f
  7699  0819  3EFF               	addlw	-1
  7700  081A  1D03               	skipz
  7701  081B  2816               	goto	u260_25
  7702  081C  1003               	clrc
  7703  081D  0CF8               	rrf	__Umul8_16@multiplier,f
  7704  081E                     i1l2204:
  7705  081E  0878               	movf	__Umul8_16@multiplier,w
  7706  081F  1D03               	btfss	3,2
  7707  0820  2822               	goto	u261_21
  7708  0821  2823               	goto	u261_20
  7709  0822                     u261_21:
  7710  0822  280B               	goto	i1l2200
  7711  0823                     u261_20:
  7712  0823                     i1l2206:
  7713  0823  0875               	movf	__Umul8_16@product+1,w
  7714  0824  00F1               	movwf	?__Umul8_16+1
  7715  0825  0874               	movf	__Umul8_16@product,w
  7716  0826  00F0               	movwf	?__Umul8_16
  7717  0827                     i1l864:
  7718  0827  0008               	return
  7719  0828                     __end_of__Umul8_16:
  7720                           
  7721                           	psect	text36
  7722  0E23                     __ptext36:	
  7723 ;; *************** function ___fldiv *****************
  7724 ;; Defined at:
  7725 ;;		line 8 in file "C:\Program Files\Microchip\xc8\v2.20\pic\sources\c90\common\sprcdiv.c"
  7726 ;; Parameters:    Size  Location     Type
  7727 ;;  a               4   32[BANK0 ] unsigned int 
  7728 ;;  b               4   36[BANK0 ] unsigned int 
  7729 ;; Auto vars:     Size  Location     Type
  7730 ;;  grs             4   52[BANK0 ] unsigned long 
  7731 ;;  rem             4   45[BANK0 ] unsigned long 
  7732 ;;  new_exp         2   50[BANK0 ] int 
  7733 ;;  aexp            1   57[BANK0 ] unsigned char 
  7734 ;;  bexp            1   56[BANK0 ] unsigned char 
  7735 ;;  sign            1   49[BANK0 ] unsigned char 
  7736 ;; Return value:  Size  Location     Type
  7737 ;;                  4   32[BANK0 ] unsigned char 
  7738 ;; Registers used:
  7739 ;;		wreg, status,2, status,0, btemp+1
  7740 ;; Tracked objects:
  7741 ;;		On entry : 0/0
  7742 ;;		On exit  : 0/0
  7743 ;;		Unchanged: 0/0
  7744 ;; Data sizes:     COMMON   BANK0   BANK1   BANK3   BANK2
  7745 ;;      Params:         0       8       0       0       0
  7746 ;;      Locals:         0      13       0       0       0
  7747 ;;      Temps:          0       5       0       0       0
  7748 ;;      Totals:         0      26       0       0       0
  7749 ;;Total ram usage:       26 bytes
  7750 ;; Hardware stack levels used:    1
  7751 ;; This function calls:
  7752 ;;		Nothing
  7753 ;; This function is called by:
  7754 ;;		_ISR_CallBack
  7755 ;;		_Sense_Temp
  7756 ;; This function uses a non-reentrant model
  7757 ;;
  7758                           
  7759                           
  7760                           ;psect for function ___fldiv
  7761  0E23                     ___fldiv:
  7762  0E23                     i1l2258:	
  7763                           ;incstack = 0
  7764                           ; Regs used in ___fldiv: [wreg+status,2+status,0+btemp+1]
  7765                           
  7766  0E23  1283               	bcf	3,5	;RP0=0, select bank0
  7767  0E24  1303               	bcf	3,6	;RP1=0, select bank0
  7768  0E25  0847               	movf	___fldiv@b+3,w
  7769  0E26  3980               	andlw	128
  7770  0E27  00FF               	movwf	btemp+1
  7771  0E28  087F               	movf	btemp+1,w
  7772  0E29  00D1               	movwf	___fldiv@sign
  7773  0E2A                     i1l2260:
  7774  0E2A  0847               	movf	___fldiv@b+3,w
  7775  0E2B  00C8               	movwf	??___fldiv
  7776  0E2C  0748               	addwf	??___fldiv,w
  7777  0E2D  00FF               	movwf	btemp+1
  7778  0E2E  087F               	movf	btemp+1,w
  7779  0E2F  00D8               	movwf	___fldiv@bexp
  7780  0E30                     i1l2262:
  7781  0E30  1FC6               	btfss	___fldiv@b+2,7
  7782  0E31  2E33               	goto	u267_21
  7783  0E32  2E34               	goto	u267_20
  7784  0E33                     u267_21:
  7785  0E33  2E35               	goto	i1l2266
  7786  0E34                     u267_20:
  7787  0E34                     i1l2264:
  7788  0E34  1458               	bsf	___fldiv@bexp,0
  7789  0E35                     i1l2266:
  7790  0E35  0858               	movf	___fldiv@bexp,w
  7791  0E36  1903               	btfsc	3,2
  7792  0E37  2E39               	goto	u268_21
  7793  0E38  2E3A               	goto	u268_20
  7794  0E39                     u268_21:
  7795  0E39  2E4A               	goto	i1l2276
  7796  0E3A                     u268_20:
  7797  0E3A                     i1l2268:
  7798  0E3A  0A58               	incf	___fldiv@bexp,w
  7799  0E3B  1D03               	btfss	3,2
  7800  0E3C  2E3E               	goto	u269_21
  7801  0E3D  2E3F               	goto	u269_20
  7802  0E3E                     u269_21:
  7803  0E3E  2E47               	goto	i1l2272
  7804  0E3F                     u269_20:
  7805  0E3F                     i1l2270:
  7806  0E3F  3000               	movlw	0
  7807  0E40  00C7               	movwf	___fldiv@b+3
  7808  0E41  3000               	movlw	0
  7809  0E42  00C6               	movwf	___fldiv@b+2
  7810  0E43  3000               	movlw	0
  7811  0E44  00C5               	movwf	___fldiv@b+1
  7812  0E45  3000               	movlw	0
  7813  0E46  00C4               	movwf	___fldiv@b
  7814  0E47                     i1l2272:
  7815  0E47  17C6               	bsf	___fldiv@b+2,7
  7816  0E48                     i1l2274:
  7817  0E48  01C7               	clrf	___fldiv@b+3
  7818  0E49  2E52               	goto	i1l2278
  7819  0E4A                     i1l2276:
  7820  0E4A  3000               	movlw	0
  7821  0E4B  00C7               	movwf	___fldiv@b+3
  7822  0E4C  3000               	movlw	0
  7823  0E4D  00C6               	movwf	___fldiv@b+2
  7824  0E4E  3000               	movlw	0
  7825  0E4F  00C5               	movwf	___fldiv@b+1
  7826  0E50  3000               	movlw	0
  7827  0E51  00C4               	movwf	___fldiv@b
  7828  0E52                     i1l2278:
  7829  0E52  0843               	movf	___fldiv@a+3,w
  7830  0E53  3980               	andlw	128
  7831  0E54  00FF               	movwf	btemp+1
  7832  0E55  087F               	movf	btemp+1,w
  7833  0E56  06D1               	xorwf	___fldiv@sign,f
  7834  0E57                     i1l2280:
  7835  0E57  0843               	movf	___fldiv@a+3,w
  7836  0E58  00C8               	movwf	??___fldiv
  7837  0E59  0748               	addwf	??___fldiv,w
  7838  0E5A  00FF               	movwf	btemp+1
  7839  0E5B  087F               	movf	btemp+1,w
  7840  0E5C  00D9               	movwf	___fldiv@aexp
  7841  0E5D                     i1l2282:
  7842  0E5D  1FC2               	btfss	___fldiv@a+2,7
  7843  0E5E  2E60               	goto	u270_21
  7844  0E5F  2E61               	goto	u270_20
  7845  0E60                     u270_21:
  7846  0E60  2E62               	goto	i1l2286
  7847  0E61                     u270_20:
  7848  0E61                     i1l2284:
  7849  0E61  1459               	bsf	___fldiv@aexp,0
  7850  0E62                     i1l2286:
  7851  0E62  0859               	movf	___fldiv@aexp,w
  7852  0E63  1903               	btfsc	3,2
  7853  0E64  2E66               	goto	u271_21
  7854  0E65  2E67               	goto	u271_20
  7855  0E66                     u271_21:
  7856  0E66  2E77               	goto	i1l2296
  7857  0E67                     u271_20:
  7858  0E67                     i1l2288:
  7859  0E67  0A59               	incf	___fldiv@aexp,w
  7860  0E68  1D03               	btfss	3,2
  7861  0E69  2E6B               	goto	u272_21
  7862  0E6A  2E6C               	goto	u272_20
  7863  0E6B                     u272_21:
  7864  0E6B  2E74               	goto	i1l2292
  7865  0E6C                     u272_20:
  7866  0E6C                     i1l2290:
  7867  0E6C  3000               	movlw	0
  7868  0E6D  00C3               	movwf	___fldiv@a+3
  7869  0E6E  3000               	movlw	0
  7870  0E6F  00C2               	movwf	___fldiv@a+2
  7871  0E70  3000               	movlw	0
  7872  0E71  00C1               	movwf	___fldiv@a+1
  7873  0E72  3000               	movlw	0
  7874  0E73  00C0               	movwf	___fldiv@a
  7875  0E74                     i1l2292:
  7876  0E74  17C2               	bsf	___fldiv@a+2,7
  7877  0E75                     i1l2294:
  7878  0E75  01C3               	clrf	___fldiv@a+3
  7879  0E76  2E7F               	goto	i1l803
  7880  0E77                     i1l2296:
  7881  0E77  3000               	movlw	0
  7882  0E78  00C3               	movwf	___fldiv@a+3
  7883  0E79  3000               	movlw	0
  7884  0E7A  00C2               	movwf	___fldiv@a+2
  7885  0E7B  3000               	movlw	0
  7886  0E7C  00C1               	movwf	___fldiv@a+1
  7887  0E7D  3000               	movlw	0
  7888  0E7E  00C0               	movwf	___fldiv@a
  7889  0E7F                     i1l803:
  7890  0E7F  0843               	movf	___fldiv@a+3,w
  7891  0E80  0442               	iorwf	___fldiv@a+2,w
  7892  0E81  0441               	iorwf	___fldiv@a+1,w
  7893  0E82  0440               	iorwf	___fldiv@a,w
  7894  0E83  1D03               	skipz
  7895  0E84  2E86               	goto	u273_21
  7896  0E85  2E87               	goto	u273_20
  7897  0E86                     u273_21:
  7898  0E86  2EA0               	goto	i1l2306
  7899  0E87                     u273_20:
  7900  0E87                     i1l2298:
  7901  0E87  3000               	movlw	0
  7902  0E88  00C7               	movwf	___fldiv@b+3
  7903  0E89  3000               	movlw	0
  7904  0E8A  00C6               	movwf	___fldiv@b+2
  7905  0E8B  3000               	movlw	0
  7906  0E8C  00C5               	movwf	___fldiv@b+1
  7907  0E8D  3000               	movlw	0
  7908  0E8E  00C4               	movwf	___fldiv@b
  7909  0E8F  3080               	movlw	128
  7910  0E90  04C6               	iorwf	___fldiv@b+2,f
  7911  0E91  307F               	movlw	127
  7912  0E92  04C7               	iorwf	___fldiv@b+3,f
  7913  0E93                     i1l2300:
  7914  0E93  0851               	movf	___fldiv@sign,w
  7915  0E94  00FF               	movwf	btemp+1
  7916  0E95  087F               	movf	btemp+1,w
  7917  0E96  04C7               	iorwf	___fldiv@b+3,f
  7918  0E97                     i1l2302:
  7919  0E97  0847               	movf	___fldiv@b+3,w
  7920  0E98  00C3               	movwf	?___fldiv+3
  7921  0E99  0846               	movf	___fldiv@b+2,w
  7922  0E9A  00C2               	movwf	?___fldiv+2
  7923  0E9B  0845               	movf	___fldiv@b+1,w
  7924  0E9C  00C1               	movwf	?___fldiv+1
  7925  0E9D  0844               	movf	___fldiv@b,w
  7926  0E9E  00C0               	movwf	?___fldiv
  7927  0E9F  2FFF               	goto	i1l805
  7928  0EA0                     i1l2306:
  7929  0EA0  0858               	movf	___fldiv@bexp,w
  7930  0EA1  1D03               	btfss	3,2
  7931  0EA2  2EA4               	goto	u274_21
  7932  0EA3  2EA5               	goto	u274_20
  7933  0EA4                     u274_21:
  7934  0EA4  2EAE               	goto	i1l2312
  7935  0EA5                     u274_20:
  7936  0EA5                     i1l2308:
  7937  0EA5  3000               	movlw	0
  7938  0EA6  00C3               	movwf	?___fldiv+3
  7939  0EA7  3000               	movlw	0
  7940  0EA8  00C2               	movwf	?___fldiv+2
  7941  0EA9  3000               	movlw	0
  7942  0EAA  00C1               	movwf	?___fldiv+1
  7943  0EAB  3000               	movlw	0
  7944  0EAC  00C0               	movwf	?___fldiv
  7945  0EAD  2FFF               	goto	i1l805
  7946  0EAE                     i1l2312:
  7947  0EAE  0858               	movf	___fldiv@bexp,w
  7948  0EAF  00C8               	movwf	??___fldiv
  7949  0EB0  01C9               	clrf	??___fldiv+1
  7950  0EB1  0849               	movf	??___fldiv+1,w
  7951  0EB2  00CB               	movwf	??___fldiv+3
  7952  0EB3  0859               	movf	___fldiv@aexp,w
  7953  0EB4  0248               	subwf	??___fldiv,w
  7954  0EB5  00CA               	movwf	??___fldiv+2
  7955  0EB6  1C03               	skipc
  7956  0EB7  03CB               	decf	??___fldiv+3,f
  7957  0EB8  084A               	movf	??___fldiv+2,w
  7958  0EB9  3E7F               	addlw	127
  7959  0EBA  00D2               	movwf	___fldiv@new_exp
  7960  0EBB  084B               	movf	??___fldiv+3,w
  7961  0EBC  1803               	skipnc
  7962  0EBD  3E01               	addlw	1
  7963  0EBE  3E00               	addlw	0
  7964  0EBF  00D3               	movwf	___fldiv@new_exp+1
  7965  0EC0                     i1l2314:
  7966  0EC0  0847               	movf	___fldiv@b+3,w
  7967  0EC1  00D0               	movwf	___fldiv@rem+3
  7968  0EC2  0846               	movf	___fldiv@b+2,w
  7969  0EC3  00CF               	movwf	___fldiv@rem+2
  7970  0EC4  0845               	movf	___fldiv@b+1,w
  7971  0EC5  00CE               	movwf	___fldiv@rem+1
  7972  0EC6  0844               	movf	___fldiv@b,w
  7973  0EC7  00CD               	movwf	___fldiv@rem
  7974  0EC8                     i1l2316:
  7975  0EC8  3000               	movlw	0
  7976  0EC9  00C7               	movwf	___fldiv@b+3
  7977  0ECA  3000               	movlw	0
  7978  0ECB  00C6               	movwf	___fldiv@b+2
  7979  0ECC  3000               	movlw	0
  7980  0ECD  00C5               	movwf	___fldiv@b+1
  7981  0ECE  3000               	movlw	0
  7982  0ECF  00C4               	movwf	___fldiv@b
  7983  0ED0                     i1l2318:
  7984  0ED0  3000               	movlw	0
  7985  0ED1  00D7               	movwf	___fldiv@grs+3
  7986  0ED2  3000               	movlw	0
  7987  0ED3  00D6               	movwf	___fldiv@grs+2
  7988  0ED4  3000               	movlw	0
  7989  0ED5  00D5               	movwf	___fldiv@grs+1
  7990  0ED6  3000               	movlw	0
  7991  0ED7  00D4               	movwf	___fldiv@grs
  7992  0ED8                     i1l2320:
  7993  0ED8  01D9               	clrf	___fldiv@aexp
  7994  0ED9  2F24               	goto	i1l2340
  7995  0EDA                     i1l2322:
  7996  0EDA  0859               	movf	___fldiv@aexp,w
  7997  0EDB  1903               	btfsc	3,2
  7998  0EDC  2EDE               	goto	u275_21
  7999  0EDD  2EDF               	goto	u275_20
  8000  0EDE                     u275_21:
  8001  0EDE  2EFF               	goto	i1l2332
  8002  0EDF                     u275_20:
  8003  0EDF                     i1l2324:
  8004  0EDF  3001               	movlw	1
  8005  0EE0  00C8               	movwf	??___fldiv
  8006  0EE1                     u276_25:
  8007  0EE1  1003               	clrc
  8008  0EE2  0DCD               	rlf	___fldiv@rem,f
  8009  0EE3  0DCE               	rlf	___fldiv@rem+1,f
  8010  0EE4  0DCF               	rlf	___fldiv@rem+2,f
  8011  0EE5  0DD0               	rlf	___fldiv@rem+3,f
  8012  0EE6  0BC8               	decfsz	??___fldiv,f
  8013  0EE7  2EE1               	goto	u276_25
  8014  0EE8  3001               	movlw	1
  8015  0EE9  00C8               	movwf	??___fldiv
  8016  0EEA                     u277_25:
  8017  0EEA  1003               	clrc
  8018  0EEB  0DC4               	rlf	___fldiv@b,f
  8019  0EEC  0DC5               	rlf	___fldiv@b+1,f
  8020  0EED  0DC6               	rlf	___fldiv@b+2,f
  8021  0EEE  0DC7               	rlf	___fldiv@b+3,f
  8022  0EEF  0BC8               	decfsz	??___fldiv,f
  8023  0EF0  2EEA               	goto	u277_25
  8024  0EF1                     i1l2326:
  8025  0EF1  1FD7               	btfss	___fldiv@grs+3,7
  8026  0EF2  2EF4               	goto	u278_21
  8027  0EF3  2EF5               	goto	u278_20
  8028  0EF4                     u278_21:
  8029  0EF4  2EF6               	goto	i1l2330
  8030  0EF5                     u278_20:
  8031  0EF5                     i1l2328:
  8032  0EF5  1444               	bsf	___fldiv@b,0
  8033  0EF6                     i1l2330:
  8034  0EF6  3001               	movlw	1
  8035  0EF7  00C8               	movwf	??___fldiv
  8036  0EF8                     u279_25:
  8037  0EF8  1003               	clrc
  8038  0EF9  0DD4               	rlf	___fldiv@grs,f
  8039  0EFA  0DD5               	rlf	___fldiv@grs+1,f
  8040  0EFB  0DD6               	rlf	___fldiv@grs+2,f
  8041  0EFC  0DD7               	rlf	___fldiv@grs+3,f
  8042  0EFD  0BC8               	decfsz	??___fldiv,f
  8043  0EFE  2EF8               	goto	u279_25
  8044  0EFF                     i1l2332:
  8045  0EFF  0843               	movf	___fldiv@a+3,w
  8046  0F00  0250               	subwf	___fldiv@rem+3,w
  8047  0F01  1D03               	skipz
  8048  0F02  2F0D               	goto	u280_25
  8049  0F03  0842               	movf	___fldiv@a+2,w
  8050  0F04  024F               	subwf	___fldiv@rem+2,w
  8051  0F05  1D03               	skipz
  8052  0F06  2F0D               	goto	u280_25
  8053  0F07  0841               	movf	___fldiv@a+1,w
  8054  0F08  024E               	subwf	___fldiv@rem+1,w
  8055  0F09  1D03               	skipz
  8056  0F0A  2F0D               	goto	u280_25
  8057  0F0B  0840               	movf	___fldiv@a,w
  8058  0F0C  024D               	subwf	___fldiv@rem,w
  8059  0F0D                     u280_25:
  8060  0F0D  1C03               	skipc
  8061  0F0E  2F10               	goto	u280_21
  8062  0F0F  2F11               	goto	u280_20
  8063  0F10                     u280_21:
  8064  0F10  2F20               	goto	i1l2338
  8065  0F11                     u280_20:
  8066  0F11                     i1l2334:
  8067  0F11  1757               	bsf	___fldiv@grs+3,6
  8068  0F12                     i1l2336:
  8069  0F12  0840               	movf	___fldiv@a,w
  8070  0F13  02CD               	subwf	___fldiv@rem,f
  8071  0F14  0841               	movf	___fldiv@a+1,w
  8072  0F15  1C03               	skipc
  8073  0F16  0F41               	incfsz	___fldiv@a+1,w
  8074  0F17  02CE               	subwf	___fldiv@rem+1,f
  8075  0F18  0842               	movf	___fldiv@a+2,w
  8076  0F19  1C03               	skipc
  8077  0F1A  0F42               	incfsz	___fldiv@a+2,w
  8078  0F1B  02CF               	subwf	___fldiv@rem+2,f
  8079  0F1C  0843               	movf	___fldiv@a+3,w
  8080  0F1D  1C03               	skipc
  8081  0F1E  0F43               	incfsz	___fldiv@a+3,w
  8082  0F1F  02D0               	subwf	___fldiv@rem+3,f
  8083  0F20                     i1l2338:
  8084  0F20  3001               	movlw	1
  8085  0F21  00FF               	movwf	btemp+1
  8086  0F22  087F               	movf	btemp+1,w
  8087  0F23  07D9               	addwf	___fldiv@aexp,f
  8088  0F24                     i1l2340:
  8089  0F24  301A               	movlw	26
  8090  0F25  0259               	subwf	___fldiv@aexp,w
  8091  0F26  1C03               	skipc
  8092  0F27  2F29               	goto	u281_21
  8093  0F28  2F2A               	goto	u281_20
  8094  0F29                     u281_21:
  8095  0F29  2EDA               	goto	i1l2322
  8096  0F2A                     u281_20:
  8097  0F2A                     i1l2342:
  8098  0F2A  0850               	movf	___fldiv@rem+3,w
  8099  0F2B  044F               	iorwf	___fldiv@rem+2,w
  8100  0F2C  044E               	iorwf	___fldiv@rem+1,w
  8101  0F2D  044D               	iorwf	___fldiv@rem,w
  8102  0F2E  1903               	skipnz
  8103  0F2F  2F31               	goto	u282_21
  8104  0F30  2F32               	goto	u282_20
  8105  0F31                     u282_21:
  8106  0F31  2F51               	goto	i1l2356
  8107  0F32                     u282_20:
  8108  0F32                     i1l2344:
  8109  0F32  1454               	bsf	___fldiv@grs,0
  8110  0F33  2F51               	goto	i1l2356
  8111  0F34                     i1l2346:
  8112  0F34  3001               	movlw	1
  8113  0F35  00C8               	movwf	??___fldiv
  8114  0F36                     u283_25:
  8115  0F36  1003               	clrc
  8116  0F37  0DC4               	rlf	___fldiv@b,f
  8117  0F38  0DC5               	rlf	___fldiv@b+1,f
  8118  0F39  0DC6               	rlf	___fldiv@b+2,f
  8119  0F3A  0DC7               	rlf	___fldiv@b+3,f
  8120  0F3B  0BC8               	decfsz	??___fldiv,f
  8121  0F3C  2F36               	goto	u283_25
  8122  0F3D                     i1l2348:
  8123  0F3D  1FD7               	btfss	___fldiv@grs+3,7
  8124  0F3E  2F40               	goto	u284_21
  8125  0F3F  2F41               	goto	u284_20
  8126  0F40                     u284_21:
  8127  0F40  2F42               	goto	i1l2352
  8128  0F41                     u284_20:
  8129  0F41                     i1l2350:
  8130  0F41  1444               	bsf	___fldiv@b,0
  8131  0F42                     i1l2352:
  8132  0F42  3001               	movlw	1
  8133  0F43  00C8               	movwf	??___fldiv
  8134  0F44                     u285_25:
  8135  0F44  1003               	clrc
  8136  0F45  0DD4               	rlf	___fldiv@grs,f
  8137  0F46  0DD5               	rlf	___fldiv@grs+1,f
  8138  0F47  0DD6               	rlf	___fldiv@grs+2,f
  8139  0F48  0DD7               	rlf	___fldiv@grs+3,f
  8140  0F49  0BC8               	decfsz	??___fldiv,f
  8141  0F4A  2F44               	goto	u285_25
  8142  0F4B                     i1l2354:
  8143  0F4B  30FF               	movlw	255
  8144  0F4C  07D2               	addwf	___fldiv@new_exp,f
  8145  0F4D  1803               	skipnc
  8146  0F4E  0AD3               	incf	___fldiv@new_exp+1,f
  8147  0F4F  30FF               	movlw	255
  8148  0F50  07D3               	addwf	___fldiv@new_exp+1,f
  8149  0F51                     i1l2356:
  8150  0F51  1FC6               	btfss	___fldiv@b+2,7
  8151  0F52  2F54               	goto	u286_21
  8152  0F53  2F55               	goto	u286_20
  8153  0F54                     u286_21:
  8154  0F54  2F34               	goto	i1l2346
  8155  0F55                     u286_20:
  8156  0F55                     i1l2358:
  8157  0F55  01D9               	clrf	___fldiv@aexp
  8158  0F56                     i1l2360:
  8159  0F56  1FD7               	btfss	___fldiv@grs+3,7
  8160  0F57  2F59               	goto	u287_21
  8161  0F58  2F5A               	goto	u287_20
  8162  0F59                     u287_21:
  8163  0F59  2F76               	goto	i1l2368
  8164  0F5A                     u287_20:
  8165  0F5A                     i1l2362:
  8166  0F5A  30FF               	movlw	255
  8167  0F5B  0554               	andwf	___fldiv@grs,w
  8168  0F5C  00C8               	movwf	??___fldiv
  8169  0F5D  30FF               	movlw	255
  8170  0F5E  0555               	andwf	___fldiv@grs+1,w
  8171  0F5F  00C9               	movwf	??___fldiv+1
  8172  0F60  30FF               	movlw	255
  8173  0F61  0556               	andwf	___fldiv@grs+2,w
  8174  0F62  00CA               	movwf	??___fldiv+2
  8175  0F63  307F               	movlw	127
  8176  0F64  0557               	andwf	___fldiv@grs+3,w
  8177  0F65  00CB               	movwf	??___fldiv+3
  8178  0F66  084B               	movf	??___fldiv+3,w
  8179  0F67  044A               	iorwf	??___fldiv+2,w
  8180  0F68  0449               	iorwf	??___fldiv+1,w
  8181  0F69  0448               	iorwf	??___fldiv,w
  8182  0F6A  1903               	skipnz
  8183  0F6B  2F6D               	goto	u288_21
  8184  0F6C  2F6E               	goto	u288_20
  8185  0F6D                     u288_21:
  8186  0F6D  2F71               	goto	i1l819
  8187  0F6E                     u288_20:
  8188  0F6E                     i1l2364:
  8189  0F6E  01D9               	clrf	___fldiv@aexp
  8190  0F6F  0AD9               	incf	___fldiv@aexp,f
  8191  0F70  2F76               	goto	i1l2368
  8192  0F71                     i1l819:
  8193  0F71  1C44               	btfss	___fldiv@b,0
  8194  0F72  2F74               	goto	u289_21
  8195  0F73  2F75               	goto	u289_20
  8196  0F74                     u289_21:
  8197  0F74  2F76               	goto	i1l2368
  8198  0F75                     u289_20:
  8199  0F75  2F6E               	goto	i1l2364
  8200  0F76                     i1l2368:
  8201  0F76  0859               	movf	___fldiv@aexp,w
  8202  0F77  1903               	btfsc	3,2
  8203  0F78  2F7A               	goto	u290_21
  8204  0F79  2F7B               	goto	u290_20
  8205  0F7A                     u290_21:
  8206  0F7A  2FAC               	goto	i1l2378
  8207  0F7B                     u290_20:
  8208  0F7B                     i1l2370:
  8209  0F7B  3001               	movlw	1
  8210  0F7C  07C4               	addwf	___fldiv@b,f
  8211  0F7D  3000               	movlw	0
  8212  0F7E  1803               	skipnc
  8213  0F7F  3001               	movlw	1
  8214  0F80  07C5               	addwf	___fldiv@b+1,f
  8215  0F81  3000               	movlw	0
  8216  0F82  1803               	skipnc
  8217  0F83  3001               	movlw	1
  8218  0F84  07C6               	addwf	___fldiv@b+2,f
  8219  0F85  3000               	movlw	0
  8220  0F86  1803               	skipnc
  8221  0F87  3001               	movlw	1
  8222  0F88  07C7               	addwf	___fldiv@b+3,f
  8223  0F89                     i1l2372:
  8224  0F89  1C47               	btfss	___fldiv@b+3,0
  8225  0F8A  2F8C               	goto	u291_21
  8226  0F8B  2F8D               	goto	u291_20
  8227  0F8C                     u291_21:
  8228  0F8C  2FAC               	goto	i1l2378
  8229  0F8D                     u291_20:
  8230  0F8D                     i1l2374:
  8231  0F8D  0844               	movf	___fldiv@b,w
  8232  0F8E  00C8               	movwf	??___fldiv
  8233  0F8F  0845               	movf	___fldiv@b+1,w
  8234  0F90  00C9               	movwf	??___fldiv+1
  8235  0F91  0846               	movf	___fldiv@b+2,w
  8236  0F92  00CA               	movwf	??___fldiv+2
  8237  0F93  0847               	movf	___fldiv@b+3,w
  8238  0F94  00CB               	movwf	??___fldiv+3
  8239  0F95  3001               	movlw	1
  8240  0F96  00CC               	movwf	??___fldiv+4
  8241  0F97                     u292_25:
  8242  0F97  0D4B               	rlf	??___fldiv+3,w
  8243  0F98  0CCB               	rrf	??___fldiv+3,f
  8244  0F99  0CCA               	rrf	??___fldiv+2,f
  8245  0F9A  0CC9               	rrf	??___fldiv+1,f
  8246  0F9B  0CC8               	rrf	??___fldiv,f
  8247  0F9C                     u292_20:
  8248  0F9C  0BCC               	decfsz	??___fldiv+4,f
  8249  0F9D  2F97               	goto	u292_25
  8250  0F9E  084B               	movf	??___fldiv+3,w
  8251  0F9F  00C7               	movwf	___fldiv@b+3
  8252  0FA0  084A               	movf	??___fldiv+2,w
  8253  0FA1  00C6               	movwf	___fldiv@b+2
  8254  0FA2  0849               	movf	??___fldiv+1,w
  8255  0FA3  00C5               	movwf	___fldiv@b+1
  8256  0FA4  0848               	movf	??___fldiv,w
  8257  0FA5  00C4               	movwf	___fldiv@b
  8258  0FA6                     i1l2376:
  8259  0FA6  3001               	movlw	1
  8260  0FA7  07D2               	addwf	___fldiv@new_exp,f
  8261  0FA8  1803               	skipnc
  8262  0FA9  0AD3               	incf	___fldiv@new_exp+1,f
  8263  0FAA  3000               	movlw	0
  8264  0FAB  07D3               	addwf	___fldiv@new_exp+1,f
  8265  0FAC                     i1l2378:
  8266  0FAC  0853               	movf	___fldiv@new_exp+1,w
  8267  0FAD  3A80               	xorlw	128
  8268  0FAE  00FF               	movwf	btemp+1
  8269  0FAF  3080               	movlw	128
  8270  0FB0  027F               	subwf	btemp+1,w
  8271  0FB1  1D03               	skipz
  8272  0FB2  2FB5               	goto	u293_25
  8273  0FB3  30FF               	movlw	255
  8274  0FB4  0252               	subwf	___fldiv@new_exp,w
  8275  0FB5                     u293_25:
  8276  0FB5  1C03               	skipc
  8277  0FB6  2FB8               	goto	u293_21
  8278  0FB7  2FB9               	goto	u293_20
  8279  0FB8                     u293_21:
  8280  0FB8  2FC7               	goto	i1l2382
  8281  0FB9                     u293_20:
  8282  0FB9                     i1l2380:
  8283  0FB9  30FF               	movlw	255
  8284  0FBA  1283               	bcf	3,5	;RP0=0, select bank0
  8285  0FBB  1303               	bcf	3,6	;RP1=0, select bank0
  8286  0FBC  00D2               	movwf	___fldiv@new_exp
  8287  0FBD  3000               	movlw	0
  8288  0FBE  00D3               	movwf	___fldiv@new_exp+1
  8289  0FBF  3000               	movlw	0
  8290  0FC0  00C7               	movwf	___fldiv@b+3
  8291  0FC1  3000               	movlw	0
  8292  0FC2  00C6               	movwf	___fldiv@b+2
  8293  0FC3  3000               	movlw	0
  8294  0FC4  00C5               	movwf	___fldiv@b+1
  8295  0FC5  3000               	movlw	0
  8296  0FC6  00C4               	movwf	___fldiv@b
  8297  0FC7                     i1l2382:
  8298  0FC7  1283               	bcf	3,5	;RP0=0, select bank0
  8299  0FC8  1303               	bcf	3,6	;RP1=0, select bank0
  8300  0FC9  0853               	movf	___fldiv@new_exp+1,w
  8301  0FCA  3A80               	xorlw	128
  8302  0FCB  00FF               	movwf	btemp+1
  8303  0FCC  3080               	movlw	128
  8304  0FCD  027F               	subwf	btemp+1,w
  8305  0FCE  1D03               	skipz
  8306  0FCF  2FD2               	goto	u294_25
  8307  0FD0  3001               	movlw	1
  8308  0FD1  0252               	subwf	___fldiv@new_exp,w
  8309  0FD2                     u294_25:
  8310  0FD2  1803               	skipnc
  8311  0FD3  2FD5               	goto	u294_21
  8312  0FD4  2FD6               	goto	u294_20
  8313  0FD5                     u294_21:
  8314  0FD5  2FE3               	goto	i1l2390
  8315  0FD6                     u294_20:
  8316  0FD6                     i1l2384:
  8317  0FD6  1283               	bcf	3,5	;RP0=0, select bank0
  8318  0FD7  1303               	bcf	3,6	;RP1=0, select bank0
  8319  0FD8  01D2               	clrf	___fldiv@new_exp
  8320  0FD9  01D3               	clrf	___fldiv@new_exp+1
  8321  0FDA                     i1l2386:
  8322  0FDA  3000               	movlw	0
  8323  0FDB  00C7               	movwf	___fldiv@b+3
  8324  0FDC  3000               	movlw	0
  8325  0FDD  00C6               	movwf	___fldiv@b+2
  8326  0FDE  3000               	movlw	0
  8327  0FDF  00C5               	movwf	___fldiv@b+1
  8328  0FE0  3000               	movlw	0
  8329  0FE1  00C4               	movwf	___fldiv@b
  8330  0FE2                     i1l2388:
  8331  0FE2  01D1               	clrf	___fldiv@sign
  8332  0FE3                     i1l2390:
  8333  0FE3  1283               	bcf	3,5	;RP0=0, select bank0
  8334  0FE4  1303               	bcf	3,6	;RP1=0, select bank0
  8335  0FE5  0852               	movf	___fldiv@new_exp,w
  8336  0FE6  00FF               	movwf	btemp+1
  8337  0FE7  087F               	movf	btemp+1,w
  8338  0FE8  00D8               	movwf	___fldiv@bexp
  8339  0FE9                     i1l2392:
  8340  0FE9  1C58               	btfss	___fldiv@bexp,0
  8341  0FEA  2FEC               	goto	u295_21
  8342  0FEB  2FED               	goto	u295_20
  8343  0FEC                     u295_21:
  8344  0FEC  2FEF               	goto	i1l2396
  8345  0FED                     u295_20:
  8346  0FED                     i1l2394:
  8347  0FED  17C6               	bsf	___fldiv@b+2,7
  8348  0FEE  2FF3               	goto	i1l827
  8349  0FEF                     i1l2396:
  8350  0FEF  307F               	movlw	127
  8351  0FF0  00FF               	movwf	btemp+1
  8352  0FF1  087F               	movf	btemp+1,w
  8353  0FF2  05C6               	andwf	___fldiv@b+2,f
  8354  0FF3                     i1l827:
  8355  0FF3  0858               	movf	___fldiv@bexp,w
  8356  0FF4  00C8               	movwf	??___fldiv
  8357  0FF5  1003               	clrc
  8358  0FF6  0C48               	rrf	??___fldiv,w
  8359  0FF7  00FF               	movwf	btemp+1
  8360  0FF8  087F               	movf	btemp+1,w
  8361  0FF9  00C7               	movwf	___fldiv@b+3
  8362  0FFA  0851               	movf	___fldiv@sign,w
  8363  0FFB  00FF               	movwf	btemp+1
  8364  0FFC  087F               	movf	btemp+1,w
  8365  0FFD  04C7               	iorwf	___fldiv@b+3,f
  8366  0FFE  2E97               	goto	i1l2302
  8367  0FFF                     i1l805:
  8368  0FFF  0008               	return
  8369  1000                     __end_of___fldiv:
  8370                           
  8371                           	psect	text37
  8372  1607                     __ptext37:	
  8373 ;; *************** function _ADC_Read *****************
  8374 ;; Defined at:
  8375 ;;		line 21 in file "ADC.c"
  8376 ;; Parameters:    Size  Location     Type
  8377 ;;		None
  8378 ;; Auto vars:     Size  Location     Type
  8379 ;;		None
  8380 ;; Return value:  Size  Location     Type
  8381 ;;                  2    0[COMMON] unsigned short 
  8382 ;; Registers used:
  8383 ;;		wreg
  8384 ;; Tracked objects:
  8385 ;;		On entry : 0/0
  8386 ;;		On exit  : 0/0
  8387 ;;		Unchanged: 0/0
  8388 ;; Data sizes:     COMMON   BANK0   BANK1   BANK3   BANK2
  8389 ;;      Params:         2       0       0       0       0
  8390 ;;      Locals:         0       0       0       0       0
  8391 ;;      Temps:          0       0       0       0       0
  8392 ;;      Totals:         2       0       0       0       0
  8393 ;;Total ram usage:        2 bytes
  8394 ;; Hardware stack levels used:    1
  8395 ;; This function calls:
  8396 ;;		Nothing
  8397 ;; This function is called by:
  8398 ;;		_Sense_Temp
  8399 ;; This function uses a non-reentrant model
  8400 ;;
  8401                           
  8402                           
  8403                           ;psect for function _ADC_Read
  8404  1607                     _ADC_Read:
  8405  1607                     i1l2252:	
  8406                           ;incstack = 0
  8407                           ; Regs used in _ADC_Read: [wreg]
  8408                           
  8409                           
  8410                           ;ADC.c: 23:     GO_DONE=1;
  8411  1607  1283               	bcf	3,5	;RP0=0, select bank0
  8412  1608  1303               	bcf	3,6	;RP1=0, select bank0
  8413  1609  151F               	bsf	31,2	;volatile
  8414  160A                     i1l310:	
  8415                           ;ADC.c: 24:     while(GO_nDONE);
  8416                           
  8417  160A  191F               	btfsc	31,2	;volatile
  8418  160B  2E0D               	goto	u266_21
  8419  160C  2E0E               	goto	u266_20
  8420  160D                     u266_21:
  8421  160D  2E0A               	goto	i1l310
  8422  160E                     u266_20:
  8423  160E                     i1l2254:
  8424                           
  8425                           ;ADC.c: 25:     return ((ADRESH<<8)+ADRESL);
  8426  160E  081E               	movf	30,w	;volatile
  8427  160F  00F1               	movwf	?_ADC_Read+1
  8428  1610  1683               	bsf	3,5	;RP0=1, select bank1
  8429  1611  1303               	bcf	3,6	;RP1=0, select bank1
  8430  1612  081E               	movf	30,w	;volatile
  8431  1613  00F0               	movwf	?_ADC_Read
  8432  1614                     i1l313:
  8433  1614  0008               	return
  8434  1615                     __end_of_ADC_Read:
  8435                           
  8436                           	psect	text38
  8437  1725                     __ptext38:	
  8438 ;; *************** function _Display_Num *****************
  8439 ;; Defined at:
  8440 ;;		line 52 in file "SSD.c"
  8441 ;; Parameters:    Size  Location     Type
  8442 ;;  Temp            1    wreg     unsigned char 
  8443 ;; Auto vars:     Size  Location     Type
  8444 ;;  Temp            1   11[COMMON] unsigned char 
  8445 ;; Return value:  Size  Location     Type
  8446 ;;                  1    wreg      void 
  8447 ;; Registers used:
  8448 ;;		wreg, fsr0l, fsr0h, status,2, status,0, btemp+1, pclath, cstack
  8449 ;; Tracked objects:
  8450 ;;		On entry : 0/0
  8451 ;;		On exit  : 0/0
  8452 ;;		Unchanged: 0/0
  8453 ;; Data sizes:     COMMON   BANK0   BANK1   BANK3   BANK2
  8454 ;;      Params:         0       0       0       0       0
  8455 ;;      Locals:         1       0       0       0       0
  8456 ;;      Temps:          0       0       0       0       0
  8457 ;;      Totals:         1       0       0       0       0
  8458 ;;Total ram usage:        1 bytes
  8459 ;; Hardware stack levels used:    1
  8460 ;; Hardware stack levels required when called:    2
  8461 ;; This function calls:
  8462 ;;		_Select_Digit
  8463 ;;		_Seperate_Num
  8464 ;; This function is called by:
  8465 ;;		_ISR_CallBack
  8466 ;; This function uses a non-reentrant model
  8467 ;;
  8468                           
  8469                           
  8470                           ;psect for function _Display_Num
  8471  1725                     _Display_Num:
  8472                           
  8473                           ;incstack = 0
  8474                           ; Regs used in _Display_Num: [wreg-fsr0h+status,2+status,0+btemp+1+pclath+cstack]
  8475                           ;Display_Num@Temp stored from wreg
  8476  1725  00FB               	movwf	Display_Num@Temp
  8477  1726                     i1l2628:
  8478                           
  8479                           ;SSD.c: 52: void Display_Num(unsigned char Temp);SSD.c: 53: {;SSD.c: 54:     Select_Seg+
      +                          +;
  8480  1726  3001               	movlw	1
  8481  1727  00FF               	movwf	btemp+1
  8482  1728  087F               	movf	btemp+1,w
  8483  1729  1283               	bcf	3,5	;RP0=0, select bank0
  8484  172A  1303               	bcf	3,6	;RP1=0, select bank0
  8485  172B  07EF               	addwf	_Select_Seg,f
  8486  172C                     i1l2630:
  8487                           
  8488                           ;SSD.c: 56:         if(Select_Seg==1)
  8489  172C  036F               	decf	_Select_Seg,w
  8490  172D  1D03               	btfss	3,2
  8491  172E  2F30               	goto	u351_21
  8492  172F  2F31               	goto	u351_20
  8493  1730                     u351_21:
  8494  1730  2F3E               	goto	i1l2636
  8495  1731                     u351_20:
  8496  1731                     i1l2632:
  8497                           
  8498                           ;SSD.c: 57:         {;SSD.c: 58:             Seperate_Num(Temp);
  8499  1731  087B               	movf	Display_Num@Temp,w
  8500  1732  160A  118A  276C  160A  118A  	fcall	_Seperate_Num
  8501  1737                     i1l2634:
  8502                           
  8503                           ;SSD.c: 59:             Select_Digit(1);
  8504  1737  3001               	movlw	1
  8505  1738  160A  118A  2748  160A  118A  	fcall	_Select_Digit
  8506                           
  8507                           ;SSD.c: 61:         }
  8508  173D  2F47               	goto	i1l154
  8509  173E                     i1l2636:
  8510                           
  8511                           ;SSD.c: 63:         {;SSD.c: 64:             Select_Digit(2);
  8512  173E  3002               	movlw	2
  8513  173F  160A  118A  2748  160A  118A  	fcall	_Select_Digit
  8514  1744                     i1l2638:
  8515                           
  8516                           ;SSD.c: 66:             Select_Seg=0;
  8517  1744  1283               	bcf	3,5	;RP0=0, select bank0
  8518  1745  1303               	bcf	3,6	;RP1=0, select bank0
  8519  1746  01EF               	clrf	_Select_Seg
  8520  1747                     i1l154:
  8521  1747  0008               	return
  8522  1748                     __end_of_Display_Num:
  8523                           
  8524                           	psect	text39
  8525  176C                     __ptext39:	
  8526 ;; *************** function _Seperate_Num *****************
  8527 ;; Defined at:
  8528 ;;		line 28 in file "SSD.c"
  8529 ;; Parameters:    Size  Location     Type
  8530 ;;  Num             1    wreg     unsigned char 
  8531 ;; Auto vars:     Size  Location     Type
  8532 ;;  Num             1   10[COMMON] unsigned char 
  8533 ;; Return value:  Size  Location     Type
  8534 ;;                  1    wreg      void 
  8535 ;; Registers used:
  8536 ;;		wreg, status,2, status,0, btemp+1, pclath, cstack
  8537 ;; Tracked objects:
  8538 ;;		On entry : 0/0
  8539 ;;		On exit  : 0/0
  8540 ;;		Unchanged: 0/0
  8541 ;; Data sizes:     COMMON   BANK0   BANK1   BANK3   BANK2
  8542 ;;      Params:         0       0       0       0       0
  8543 ;;      Locals:         1       0       0       0       0
  8544 ;;      Temps:          2       0       0       0       0
  8545 ;;      Totals:         3       0       0       0       0
  8546 ;;Total ram usage:        3 bytes
  8547 ;; Hardware stack levels used:    1
  8548 ;; Hardware stack levels required when called:    1
  8549 ;; This function calls:
  8550 ;;		___awdiv
  8551 ;;		___awmod
  8552 ;; This function is called by:
  8553 ;;		_Display_Num
  8554 ;; This function uses a non-reentrant model
  8555 ;;
  8556                           
  8557                           
  8558                           ;psect for function _Seperate_Num
  8559  176C                     _Seperate_Num:
  8560                           
  8561                           ;incstack = 0
  8562                           ; Regs used in _Seperate_Num: [wreg+status,2+status,0+btemp+1+pclath+cstack]
  8563                           ;Seperate_Num@Num stored from wreg
  8564  176C  00FA               	movwf	Seperate_Num@Num
  8565  176D                     i1l2232:
  8566                           
  8567                           ;SSD.c: 28: void Seperate_Num(unsigned char Num);SSD.c: 29: {;SSD.c: 30:     Num_Digit[0
      +                          ]=Num%10;
  8568  176D  300A               	movlw	10
  8569  176E  00F0               	movwf	___awmod@divisor
  8570  176F  3000               	movlw	0
  8571  1770  00F1               	movwf	___awmod@divisor+1
  8572  1771  087A               	movf	Seperate_Num@Num,w
  8573  1772  00F8               	movwf	??_Seperate_Num
  8574  1773  01F9               	clrf	??_Seperate_Num+1
  8575  1774  0878               	movf	??_Seperate_Num,w
  8576  1775  00F2               	movwf	___awmod@dividend
  8577  1776  0879               	movf	??_Seperate_Num+1,w
  8578  1777  00F3               	movwf	___awmod@dividend+1
  8579  1778  120A  158A  20F1  160A  118A  	fcall	___awmod
  8580  177D  0870               	movf	?___awmod,w
  8581  177E  00FF               	movwf	btemp+1
  8582  177F  087F               	movf	btemp+1,w
  8583  1780  1283               	bcf	3,5	;RP0=0, select bank0
  8584  1781  1303               	bcf	3,6	;RP1=0, select bank0
  8585  1782  00ED               	movwf	_Num_Digit
  8586                           
  8587                           ;SSD.c: 31:     Num_Digit[1]=Num/10;
  8588  1783  300A               	movlw	10
  8589  1784  00F0               	movwf	___awdiv@divisor
  8590  1785  3000               	movlw	0
  8591  1786  00F1               	movwf	___awdiv@divisor+1
  8592  1787  087A               	movf	Seperate_Num@Num,w
  8593  1788  00F8               	movwf	??_Seperate_Num
  8594  1789  01F9               	clrf	??_Seperate_Num+1
  8595  178A  0878               	movf	??_Seperate_Num,w
  8596  178B  00F2               	movwf	___awdiv@dividend
  8597  178C  0879               	movf	??_Seperate_Num+1,w
  8598  178D  00F3               	movwf	___awdiv@dividend+1
  8599  178E  120A  158A  214A  160A  118A  	fcall	___awdiv
  8600  1793  0870               	movf	?___awdiv,w
  8601  1794  00FF               	movwf	btemp+1
  8602  1795  087F               	movf	btemp+1,w
  8603  1796  1283               	bcf	3,5	;RP0=0, select bank0
  8604  1797  1303               	bcf	3,6	;RP1=0, select bank0
  8605  1798  00EE               	movwf	_Num_Digit+1
  8606  1799                     i1l142:
  8607  1799  0008               	return
  8608  179A                     __end_of_Seperate_Num:
  8609                           
  8610                           	psect	text40
  8611  08F1                     __ptext40:	
  8612 ;; *************** function ___awmod *****************
  8613 ;; Defined at:
  8614 ;;		line 5 in file "C:\Program Files\Microchip\xc8\v2.20\pic\sources\c90\common\awmod.c"
  8615 ;; Parameters:    Size  Location     Type
  8616 ;;  divisor         2    0[COMMON] int 
  8617 ;;  dividend        2    2[COMMON] int 
  8618 ;; Auto vars:     Size  Location     Type
  8619 ;;  sign            1    5[COMMON] unsigned char 
  8620 ;;  counter         1    4[COMMON] unsigned char 
  8621 ;; Return value:  Size  Location     Type
  8622 ;;                  2    0[COMMON] int 
  8623 ;; Registers used:
  8624 ;;		wreg, status,2, status,0, btemp+1
  8625 ;; Tracked objects:
  8626 ;;		On entry : 0/0
  8627 ;;		On exit  : 0/0
  8628 ;;		Unchanged: 0/0
  8629 ;; Data sizes:     COMMON   BANK0   BANK1   BANK3   BANK2
  8630 ;;      Params:         4       0       0       0       0
  8631 ;;      Locals:         2       0       0       0       0
  8632 ;;      Temps:          0       0       0       0       0
  8633 ;;      Totals:         6       0       0       0       0
  8634 ;;Total ram usage:        6 bytes
  8635 ;; Hardware stack levels used:    1
  8636 ;; This function calls:
  8637 ;;		Nothing
  8638 ;; This function is called by:
  8639 ;;		_Seperate_Num
  8640 ;; This function uses a non-reentrant model
  8641 ;;
  8642                           
  8643                           
  8644                           ;psect for function ___awmod
  8645  08F1                     ___awmod:
  8646  08F1                     i1l2158:	
  8647                           ;incstack = 0
  8648                           ; Regs used in ___awmod: [wreg+status,2+status,0+btemp+1]
  8649                           
  8650  08F1  01F5               	clrf	___awmod@sign
  8651  08F2                     i1l2160:
  8652  08F2  1FF3               	btfss	___awmod@dividend+1,7
  8653  08F3  28F5               	goto	u250_21
  8654  08F4  28F6               	goto	u250_20
  8655  08F5                     u250_21:
  8656  08F5  28FD               	goto	i1l2166
  8657  08F6                     u250_20:
  8658  08F6                     i1l2162:
  8659  08F6  09F2               	comf	___awmod@dividend,f
  8660  08F7  09F3               	comf	___awmod@dividend+1,f
  8661  08F8  0AF2               	incf	___awmod@dividend,f
  8662  08F9  1903               	skipnz
  8663  08FA  0AF3               	incf	___awmod@dividend+1,f
  8664  08FB                     i1l2164:
  8665  08FB  01F5               	clrf	___awmod@sign
  8666  08FC  0AF5               	incf	___awmod@sign,f
  8667  08FD                     i1l2166:
  8668  08FD  1FF1               	btfss	___awmod@divisor+1,7
  8669  08FE  2900               	goto	u251_21
  8670  08FF  2901               	goto	u251_20
  8671  0900                     u251_21:
  8672  0900  2906               	goto	i1l2170
  8673  0901                     u251_20:
  8674  0901                     i1l2168:
  8675  0901  09F0               	comf	___awmod@divisor,f
  8676  0902  09F1               	comf	___awmod@divisor+1,f
  8677  0903  0AF0               	incf	___awmod@divisor,f
  8678  0904  1903               	skipnz
  8679  0905  0AF1               	incf	___awmod@divisor+1,f
  8680  0906                     i1l2170:
  8681  0906  0870               	movf	___awmod@divisor,w
  8682  0907  0471               	iorwf	___awmod@divisor+1,w
  8683  0908  1903               	btfsc	3,2
  8684  0909  290B               	goto	u252_21
  8685  090A  290C               	goto	u252_20
  8686  090B                     u252_21:
  8687  090B  293B               	goto	i1l2188
  8688  090C                     u252_20:
  8689  090C                     i1l2172:
  8690  090C  01F4               	clrf	___awmod@counter
  8691  090D  0AF4               	incf	___awmod@counter,f
  8692  090E  291A               	goto	i1l2178
  8693  090F                     i1l2174:
  8694  090F  3001               	movlw	1
  8695  0910                     u253_25:
  8696  0910  1003               	clrc
  8697  0911  0DF0               	rlf	___awmod@divisor,f
  8698  0912  0DF1               	rlf	___awmod@divisor+1,f
  8699  0913  3EFF               	addlw	-1
  8700  0914  1D03               	skipz
  8701  0915  2910               	goto	u253_25
  8702  0916                     i1l2176:
  8703  0916  3001               	movlw	1
  8704  0917  00FF               	movwf	btemp+1
  8705  0918  087F               	movf	btemp+1,w
  8706  0919  07F4               	addwf	___awmod@counter,f
  8707  091A                     i1l2178:
  8708  091A  1FF1               	btfss	___awmod@divisor+1,7
  8709  091B  291D               	goto	u254_21
  8710  091C  291E               	goto	u254_20
  8711  091D                     u254_21:
  8712  091D  290F               	goto	i1l2174
  8713  091E                     u254_20:
  8714  091E                     i1l2180:
  8715  091E  0871               	movf	___awmod@divisor+1,w
  8716  091F  0273               	subwf	___awmod@dividend+1,w
  8717  0920  1D03               	skipz
  8718  0921  2924               	goto	u255_25
  8719  0922  0870               	movf	___awmod@divisor,w
  8720  0923  0272               	subwf	___awmod@dividend,w
  8721  0924                     u255_25:
  8722  0924  1C03               	skipc
  8723  0925  2927               	goto	u255_21
  8724  0926  2928               	goto	u255_20
  8725  0927                     u255_21:
  8726  0927  292E               	goto	i1l2184
  8727  0928                     u255_20:
  8728  0928                     i1l2182:
  8729  0928  0870               	movf	___awmod@divisor,w
  8730  0929  02F2               	subwf	___awmod@dividend,f
  8731  092A  0871               	movf	___awmod@divisor+1,w
  8732  092B  1C03               	skipc
  8733  092C  03F3               	decf	___awmod@dividend+1,f
  8734  092D  02F3               	subwf	___awmod@dividend+1,f
  8735  092E                     i1l2184:
  8736  092E  3001               	movlw	1
  8737  092F                     u256_25:
  8738  092F  1003               	clrc
  8739  0930  0CF1               	rrf	___awmod@divisor+1,f
  8740  0931  0CF0               	rrf	___awmod@divisor,f
  8741  0932  3EFF               	addlw	-1
  8742  0933  1D03               	skipz
  8743  0934  292F               	goto	u256_25
  8744  0935                     i1l2186:
  8745  0935  3001               	movlw	1
  8746  0936  02F4               	subwf	___awmod@counter,f
  8747  0937  1D03               	btfss	3,2
  8748  0938  293A               	goto	u257_21
  8749  0939  293B               	goto	u257_20
  8750  093A                     u257_21:
  8751  093A  291E               	goto	i1l2180
  8752  093B                     u257_20:
  8753  093B                     i1l2188:
  8754  093B  0875               	movf	___awmod@sign,w
  8755  093C  1903               	btfsc	3,2
  8756  093D  293F               	goto	u258_21
  8757  093E  2940               	goto	u258_20
  8758  093F                     u258_21:
  8759  093F  2945               	goto	i1l2192
  8760  0940                     u258_20:
  8761  0940                     i1l2190:
  8762  0940  09F2               	comf	___awmod@dividend,f
  8763  0941  09F3               	comf	___awmod@dividend+1,f
  8764  0942  0AF2               	incf	___awmod@dividend,f
  8765  0943  1903               	skipnz
  8766  0944  0AF3               	incf	___awmod@dividend+1,f
  8767  0945                     i1l2192:
  8768  0945  0873               	movf	___awmod@dividend+1,w
  8769  0946  00F1               	movwf	?___awmod+1
  8770  0947  0872               	movf	___awmod@dividend,w
  8771  0948  00F0               	movwf	?___awmod
  8772  0949                     i1l620:
  8773  0949  0008               	return
  8774  094A                     __end_of___awmod:
  8775                           
  8776                           	psect	text41
  8777  094A                     __ptext41:	
  8778 ;; *************** function ___awdiv *****************
  8779 ;; Defined at:
  8780 ;;		line 5 in file "C:\Program Files\Microchip\xc8\v2.20\pic\sources\c90\common\awdiv.c"
  8781 ;; Parameters:    Size  Location     Type
  8782 ;;  divisor         2    0[COMMON] int 
  8783 ;;  dividend        2    2[COMMON] int 
  8784 ;; Auto vars:     Size  Location     Type
  8785 ;;  quotient        2    6[COMMON] int 
  8786 ;;  sign            1    5[COMMON] unsigned char 
  8787 ;;  counter         1    4[COMMON] unsigned char 
  8788 ;; Return value:  Size  Location     Type
  8789 ;;                  2    0[COMMON] int 
  8790 ;; Registers used:
  8791 ;;		wreg, status,2, status,0, btemp+1
  8792 ;; Tracked objects:
  8793 ;;		On entry : 0/0
  8794 ;;		On exit  : 0/0
  8795 ;;		Unchanged: 0/0
  8796 ;; Data sizes:     COMMON   BANK0   BANK1   BANK3   BANK2
  8797 ;;      Params:         4       0       0       0       0
  8798 ;;      Locals:         4       0       0       0       0
  8799 ;;      Temps:          0       0       0       0       0
  8800 ;;      Totals:         8       0       0       0       0
  8801 ;;Total ram usage:        8 bytes
  8802 ;; Hardware stack levels used:    1
  8803 ;; This function calls:
  8804 ;;		Nothing
  8805 ;; This function is called by:
  8806 ;;		_Seperate_Num
  8807 ;; This function uses a non-reentrant model
  8808 ;;
  8809                           
  8810                           
  8811                           ;psect for function ___awdiv
  8812  094A                     ___awdiv:
  8813  094A                     i1l2114:	
  8814                           ;incstack = 0
  8815                           ; Regs used in ___awdiv: [wreg+status,2+status,0+btemp+1]
  8816                           
  8817  094A  01F5               	clrf	___awdiv@sign
  8818  094B                     i1l2116:
  8819  094B  1FF1               	btfss	___awdiv@divisor+1,7
  8820  094C  294E               	goto	u240_21
  8821  094D  294F               	goto	u240_20
  8822  094E                     u240_21:
  8823  094E  2956               	goto	i1l2122
  8824  094F                     u240_20:
  8825  094F                     i1l2118:
  8826  094F  09F0               	comf	___awdiv@divisor,f
  8827  0950  09F1               	comf	___awdiv@divisor+1,f
  8828  0951  0AF0               	incf	___awdiv@divisor,f
  8829  0952  1903               	skipnz
  8830  0953  0AF1               	incf	___awdiv@divisor+1,f
  8831  0954                     i1l2120:
  8832  0954  01F5               	clrf	___awdiv@sign
  8833  0955  0AF5               	incf	___awdiv@sign,f
  8834  0956                     i1l2122:
  8835  0956  1FF3               	btfss	___awdiv@dividend+1,7
  8836  0957  2959               	goto	u241_21
  8837  0958  295A               	goto	u241_20
  8838  0959                     u241_21:
  8839  0959  2963               	goto	i1l2128
  8840  095A                     u241_20:
  8841  095A                     i1l2124:
  8842  095A  09F2               	comf	___awdiv@dividend,f
  8843  095B  09F3               	comf	___awdiv@dividend+1,f
  8844  095C  0AF2               	incf	___awdiv@dividend,f
  8845  095D  1903               	skipnz
  8846  095E  0AF3               	incf	___awdiv@dividend+1,f
  8847  095F                     i1l2126:
  8848  095F  3001               	movlw	1
  8849  0960  00FF               	movwf	btemp+1
  8850  0961  087F               	movf	btemp+1,w
  8851  0962  06F5               	xorwf	___awdiv@sign,f
  8852  0963                     i1l2128:
  8853  0963  01F6               	clrf	___awdiv@quotient
  8854  0964  01F7               	clrf	___awdiv@quotient+1
  8855  0965                     i1l2130:
  8856  0965  0870               	movf	___awdiv@divisor,w
  8857  0966  0471               	iorwf	___awdiv@divisor+1,w
  8858  0967  1903               	btfsc	3,2
  8859  0968  296A               	goto	u242_21
  8860  0969  296B               	goto	u242_20
  8861  096A                     u242_21:
  8862  096A  29A2               	goto	i1l2150
  8863  096B                     u242_20:
  8864  096B                     i1l2132:
  8865  096B  01F4               	clrf	___awdiv@counter
  8866  096C  0AF4               	incf	___awdiv@counter,f
  8867  096D  2979               	goto	i1l2138
  8868  096E                     i1l2134:
  8869  096E  3001               	movlw	1
  8870  096F                     u243_25:
  8871  096F  1003               	clrc
  8872  0970  0DF0               	rlf	___awdiv@divisor,f
  8873  0971  0DF1               	rlf	___awdiv@divisor+1,f
  8874  0972  3EFF               	addlw	-1
  8875  0973  1D03               	skipz
  8876  0974  296F               	goto	u243_25
  8877  0975                     i1l2136:
  8878  0975  3001               	movlw	1
  8879  0976  00FF               	movwf	btemp+1
  8880  0977  087F               	movf	btemp+1,w
  8881  0978  07F4               	addwf	___awdiv@counter,f
  8882  0979                     i1l2138:
  8883  0979  1FF1               	btfss	___awdiv@divisor+1,7
  8884  097A  297C               	goto	u244_21
  8885  097B  297D               	goto	u244_20
  8886  097C                     u244_21:
  8887  097C  296E               	goto	i1l2134
  8888  097D                     u244_20:
  8889  097D                     i1l2140:
  8890  097D  3001               	movlw	1
  8891  097E                     u245_25:
  8892  097E  1003               	clrc
  8893  097F  0DF6               	rlf	___awdiv@quotient,f
  8894  0980  0DF7               	rlf	___awdiv@quotient+1,f
  8895  0981  3EFF               	addlw	-1
  8896  0982  1D03               	skipz
  8897  0983  297E               	goto	u245_25
  8898  0984  0871               	movf	___awdiv@divisor+1,w
  8899  0985  0273               	subwf	___awdiv@dividend+1,w
  8900  0986  1D03               	skipz
  8901  0987  298A               	goto	u246_25
  8902  0988  0870               	movf	___awdiv@divisor,w
  8903  0989  0272               	subwf	___awdiv@dividend,w
  8904  098A                     u246_25:
  8905  098A  1C03               	skipc
  8906  098B  298D               	goto	u246_21
  8907  098C  298E               	goto	u246_20
  8908  098D                     u246_21:
  8909  098D  2995               	goto	i1l2146
  8910  098E                     u246_20:
  8911  098E                     i1l2142:
  8912  098E  0870               	movf	___awdiv@divisor,w
  8913  098F  02F2               	subwf	___awdiv@dividend,f
  8914  0990  0871               	movf	___awdiv@divisor+1,w
  8915  0991  1C03               	skipc
  8916  0992  03F3               	decf	___awdiv@dividend+1,f
  8917  0993  02F3               	subwf	___awdiv@dividend+1,f
  8918  0994                     i1l2144:
  8919  0994  1476               	bsf	___awdiv@quotient,0
  8920  0995                     i1l2146:
  8921  0995  3001               	movlw	1
  8922  0996                     u247_25:
  8923  0996  1003               	clrc
  8924  0997  0CF1               	rrf	___awdiv@divisor+1,f
  8925  0998  0CF0               	rrf	___awdiv@divisor,f
  8926  0999  3EFF               	addlw	-1
  8927  099A  1D03               	skipz
  8928  099B  2996               	goto	u247_25
  8929  099C                     i1l2148:
  8930  099C  3001               	movlw	1
  8931  099D  02F4               	subwf	___awdiv@counter,f
  8932  099E  1D03               	btfss	3,2
  8933  099F  29A1               	goto	u248_21
  8934  09A0  29A2               	goto	u248_20
  8935  09A1                     u248_21:
  8936  09A1  297D               	goto	i1l2140
  8937  09A2                     u248_20:
  8938  09A2                     i1l2150:
  8939  09A2  0875               	movf	___awdiv@sign,w
  8940  09A3  1903               	btfsc	3,2
  8941  09A4  29A6               	goto	u249_21
  8942  09A5  29A7               	goto	u249_20
  8943  09A6                     u249_21:
  8944  09A6  29AC               	goto	i1l2154
  8945  09A7                     u249_20:
  8946  09A7                     i1l2152:
  8947  09A7  09F6               	comf	___awdiv@quotient,f
  8948  09A8  09F7               	comf	___awdiv@quotient+1,f
  8949  09A9  0AF6               	incf	___awdiv@quotient,f
  8950  09AA  1903               	skipnz
  8951  09AB  0AF7               	incf	___awdiv@quotient+1,f
  8952  09AC                     i1l2154:
  8953  09AC  0877               	movf	___awdiv@quotient+1,w
  8954  09AD  00F1               	movwf	?___awdiv+1
  8955  09AE  0876               	movf	___awdiv@quotient,w
  8956  09AF  00F0               	movwf	?___awdiv
  8957  09B0                     i1l607:
  8958  09B0  0008               	return
  8959  09B1                     __end_of___awdiv:
  8960                           
  8961                           	psect	text42
  8962  1748                     __ptext42:	
  8963 ;; *************** function _Select_Digit *****************
  8964 ;; Defined at:
  8965 ;;		line 35 in file "SSD.c"
  8966 ;; Parameters:    Size  Location     Type
  8967 ;;  Digit           1    wreg     unsigned char 
  8968 ;; Auto vars:     Size  Location     Type
  8969 ;;  Digit           1    2[COMMON] unsigned char 
  8970 ;; Return value:  Size  Location     Type
  8971 ;;                  1    wreg      void 
  8972 ;; Registers used:
  8973 ;;		wreg, fsr0l, fsr0h, status,2, status,0
  8974 ;; Tracked objects:
  8975 ;;		On entry : 0/0
  8976 ;;		On exit  : 0/0
  8977 ;;		Unchanged: 0/0
  8978 ;; Data sizes:     COMMON   BANK0   BANK1   BANK3   BANK2
  8979 ;;      Params:         0       0       0       0       0
  8980 ;;      Locals:         1       0       0       0       0
  8981 ;;      Temps:          2       0       0       0       0
  8982 ;;      Totals:         3       0       0       0       0
  8983 ;;Total ram usage:        3 bytes
  8984 ;; Hardware stack levels used:    1
  8985 ;; This function calls:
  8986 ;;		Nothing
  8987 ;; This function is called by:
  8988 ;;		_Display_Num
  8989 ;; This function uses a non-reentrant model
  8990 ;;
  8991                           
  8992                           
  8993                           ;psect for function _Select_Digit
  8994  1748                     _Select_Digit:
  8995                           
  8996                           ;incstack = 0
  8997                           ; Regs used in _Select_Digit: [wreg-fsr0h+status,2+status,0]
  8998                           ;Select_Digit@Digit stored from wreg
  8999  1748  00F2               	movwf	Select_Digit@Digit
  9000  1749                     i1l2234:
  9001                           
  9002                           ;SSD.c: 35: void Select_Digit(unsigned char Digit);SSD.c: 36: {;SSD.c: 37:         PORTD
      +                           = SetNum[Num_Digit[Digit-1]];
  9003  1749  0872               	movf	Select_Digit@Digit,w
  9004  174A  3E6C               	addlw	(low ((_Num_Digit| 0+255)))& (0+255)
  9005  174B  0084               	movwf	4
  9006  174C  1383               	bcf	3,7	;select IRP bank0
  9007  174D  0800               	movf	0,w
  9008  174E  3E63               	addlw	(low (_SetNum| 0))& (0+255)
  9009  174F  0084               	movwf	4
  9010  1750  0800               	movf	0,w
  9011  1751  1283               	bcf	3,5	;RP0=0, select bank0
  9012  1752  1303               	bcf	3,6	;RP1=0, select bank0
  9013  1753  0088               	movwf	8	;volatile
  9014                           
  9015                           ;SSD.c: 38:         switch(Digit)
  9016  1754  2F5B               	goto	i1l2238
  9017  1755                     i1l146:	
  9018                           ;SSD.c: 39:         {;SSD.c: 40:             case 1:
  9019                           
  9020                           
  9021                           ;SSD.c: 41:                  PORTAbits.RA4 = 0;
  9022  1755  1205               	bcf	5,4	;volatile
  9023                           
  9024                           ;SSD.c: 42:                  PORTAbits.RA5= 1;
  9025  1756  1685               	bsf	5,5	;volatile
  9026                           
  9027                           ;SSD.c: 43:               break;
  9028  1757  2F6B               	goto	i1l149
  9029  1758                     i1l148:	
  9030                           ;SSD.c: 44:             case 2:
  9031                           
  9032                           
  9033                           ;SSD.c: 45:                 PORTAbits.RA5 = 0;
  9034  1758  1285               	bcf	5,5	;volatile
  9035                           
  9036                           ;SSD.c: 46:                 PORTAbits.RA4 = 1;
  9037  1759  1605               	bsf	5,4	;volatile
  9038                           
  9039                           ;SSD.c: 47:               break;
  9040  175A  2F6B               	goto	i1l149
  9041  175B                     i1l2238:
  9042  175B  0872               	movf	Select_Digit@Digit,w
  9043  175C  00F0               	movwf	??_Select_Digit
  9044  175D  01F1               	clrf	??_Select_Digit+1
  9045                           
  9046                           ; Switch on 2 bytes has been partitioned into a top level switch of size 1, and 1 sub-sw
      +                          itches
  9047                           ; Switch size 1, requested type "simple"
  9048                           ; Number of cases is 1, Range of values is 0 to 0
  9049                           ; switch strategies available:
  9050                           ; Name         Instructions Cycles
  9051                           ; simple_byte            4     3 (average)
  9052                           ; direct_byte           11     8 (fixed)
  9053                           ; jumptable            260     6 (fixed)
  9054                           ;	Chosen strategy is simple_byte
  9055  175E  0871               	movf	??_Select_Digit+1,w
  9056  175F  3A00               	xorlw	0	; case 0
  9057  1760  1903               	skipnz
  9058  1761  2F63               	goto	i1l3424
  9059  1762  2F6B               	goto	i1l149
  9060  1763                     i1l3424:
  9061                           
  9062                           ; Switch size 1, requested type "simple"
  9063                           ; Number of cases is 2, Range of values is 1 to 2
  9064                           ; switch strategies available:
  9065                           ; Name         Instructions Cycles
  9066                           ; simple_byte            7     4 (average)
  9067                           ; direct_byte           17    11 (fixed)
  9068                           ; jumptable            263     9 (fixed)
  9069                           ;	Chosen strategy is simple_byte
  9070  1763  0870               	movf	??_Select_Digit,w
  9071  1764  3A01               	xorlw	1	; case 1
  9072  1765  1903               	skipnz
  9073  1766  2F55               	goto	i1l146
  9074  1767  3A03               	xorlw	3	; case 2
  9075  1768  1903               	skipnz
  9076  1769  2F58               	goto	i1l148
  9077  176A  2F6B               	goto	i1l149
  9078  176B                     i1l149:
  9079  176B  0008               	return
  9080  176C                     __end_of_Select_Digit:
  9081                           
  9082                           	psect	text43
  9083  15BA                     __ptext43:	
  9084 ;; *************** function _Disable_Heating_and_Cooling *****************
  9085 ;; Defined at:
  9086 ;;		line 19 in file "HEATER_AND_COOLER.c"
  9087 ;; Parameters:    Size  Location     Type
  9088 ;;		None
  9089 ;; Auto vars:     Size  Location     Type
  9090 ;;		None
  9091 ;; Return value:  Size  Location     Type
  9092 ;;                  1    wreg      void 
  9093 ;; Registers used:
  9094 ;;		None
  9095 ;; Tracked objects:
  9096 ;;		On entry : 0/0
  9097 ;;		On exit  : 0/0
  9098 ;;		Unchanged: 0/0
  9099 ;; Data sizes:     COMMON   BANK0   BANK1   BANK3   BANK2
  9100 ;;      Params:         0       0       0       0       0
  9101 ;;      Locals:         0       0       0       0       0
  9102 ;;      Temps:          0       0       0       0       0
  9103 ;;      Totals:         0       0       0       0       0
  9104 ;;Total ram usage:        0 bytes
  9105 ;; Hardware stack levels used:    1
  9106 ;; This function calls:
  9107 ;;		Nothing
  9108 ;; This function is called by:
  9109 ;;		_ISR_CallBack
  9110 ;; This function uses a non-reentrant model
  9111 ;;
  9112                           
  9113                           
  9114                           ;psect for function _Disable_Heating_and_Cooling
  9115  15BA                     _Disable_Heating_and_Cooling:
  9116  15BA                     i1l2622:	
  9117                           ;incstack = 0
  9118                           ; Regs used in _Disable_Heating_and_Cooling: []
  9119                           
  9120                           
  9121                           ;HEATER_AND_COOLER.c: 21:     RC5=0;
  9122  15BA  1283               	bcf	3,5	;RP0=0, select bank0
  9123  15BB  1303               	bcf	3,6	;RP1=0, select bank0
  9124  15BC  1287               	bcf	7,5	;volatile
  9125                           
  9126                           ;HEATER_AND_COOLER.c: 22:     RC2=0;
  9127  15BD  1107               	bcf	7,2	;volatile
  9128                           
  9129                           ;HEATER_AND_COOLER.c: 23:     RB7=0;
  9130  15BE  1386               	bcf	6,7	;volatile
  9131  15BF                     i1l336:
  9132  15BF  0008               	return
  9133  15C0                     __end_of_Disable_Heating_and_Cooling:
  9134                           
  9135                           	psect	text44
  9136  15AB                     __ptext44:	
  9137 ;; *************** function _Disable_Display *****************
  9138 ;; Defined at:
  9139 ;;		line 21 in file "SSD.c"
  9140 ;; Parameters:    Size  Location     Type
  9141 ;;		None
  9142 ;; Auto vars:     Size  Location     Type
  9143 ;;		None
  9144 ;; Return value:  Size  Location     Type
  9145 ;;                  1    wreg      void 
  9146 ;; Registers used:
  9147 ;;		None
  9148 ;; Tracked objects:
  9149 ;;		On entry : 0/0
  9150 ;;		On exit  : 0/0
  9151 ;;		Unchanged: 0/0
  9152 ;; Data sizes:     COMMON   BANK0   BANK1   BANK3   BANK2
  9153 ;;      Params:         0       0       0       0       0
  9154 ;;      Locals:         0       0       0       0       0
  9155 ;;      Temps:          0       0       0       0       0
  9156 ;;      Totals:         0       0       0       0       0
  9157 ;;Total ram usage:        0 bytes
  9158 ;; Hardware stack levels used:    1
  9159 ;; This function calls:
  9160 ;;		Nothing
  9161 ;; This function is called by:
  9162 ;;		_ISR_CallBack
  9163 ;; This function uses a non-reentrant model
  9164 ;;
  9165                           
  9166                           
  9167                           ;psect for function _Disable_Display
  9168  15AB                     _Disable_Display:
  9169  15AB                     i1l2620:	
  9170                           ;incstack = 0
  9171                           ; Regs used in _Disable_Display: []
  9172                           
  9173                           
  9174                           ;SSD.c: 24:     PORTAbits.RA5 = 0;
  9175  15AB  1283               	bcf	3,5	;RP0=0, select bank0
  9176  15AC  1303               	bcf	3,6	;RP1=0, select bank0
  9177  15AD  1285               	bcf	5,5	;volatile
  9178                           
  9179                           ;SSD.c: 25:     PORTAbits.RA4 = 0;
  9180  15AE  1205               	bcf	5,4	;volatile
  9181  15AF                     i1l139:
  9182  15AF  0008               	return
  9183  15B0                     __end_of_Disable_Display:
  9184  0002                     
  9185                           	psect	functab
  9186  004D                     __pfunctab:
  9187  004D                     fptable:
  9188  004D  284D               	goto	fptable	;no entries
  9189  004E                     __i1fptable:
  9190  004E                     i1fptable:
  9191  004E  00FF               	movwf	(btemp+1)& (0+127)
  9192  004F  3000               	movlw	high i1fptable
  9193  0050  008A               	movwf	10
  9194  0051  087F               	movf	(btemp+1)& (0+127),w
  9195  0052  0782               	addwf	2,f
  9196  0053                     i1fpbase:
  9197  0053  2853               	goto	i1fpbase	; Call via a null pointer and you will get stuck here.
  9198  0054                     fp__ISR_CallBack:
  9199  0054  120A  118A  2E4C   	ljmp	_ISR_CallBack
  9200  0057                     __end_of__i1fptable:
  9201  007E                     btemp	set	126	;btemp
  9202  007E                     wtemp0	set	126
  9203                           
  9204                           	psect	config
  9205                           
  9206                           ;Config register CONFIG @ 0x2007
  9207                           ;	Oscillator Selection bits
  9208                           ;	FOSC = XT, XT oscillator
  9209                           ;	Watchdog Timer Enable bit
  9210                           ;	WDTE = OFF, WDT disabled
  9211                           ;	Power-up Timer Enable bit
  9212                           ;	PWRTE = OFF, PWRT disabled
  9213                           ;	Brown-out Reset Enable bit
  9214                           ;	BOREN = OFF, BOR disabled
  9215                           ;	Low-Voltage (Single-Supply) In-Circuit Serial Programming Enable bit
  9216                           ;	LVP = OFF, RB3 is digital I/O, HV on MCLR must be used for programming
  9217                           ;	Data EEPROM Memory Code Protection bit
  9218                           ;	CPD = OFF, Data EEPROM code protection off
  9219                           ;	Flash Program Memory Write Enable bits
  9220                           ;	WRT = OFF, Write protection off; all program memory may be written to by EECON control
  9221                           ;	In-Circuit Debugger Mode bit
  9222                           ;	DEBUG = 0x1, unprogrammed default
  9223                           ;	Flash Program Memory Code Protection bit
  9224                           ;	CP = OFF, Code protection off
  9225  2007                     	org	8199
  9226  2007  3F39               	dw	16185

Data Sizes:
    Strings     0
    Constant    0
    Data        16
    BSS         14
    Persistent  1
    Stack       0

Auto Spaces:
    Space          Size  Autos    Used
    COMMON           14     14      14
    BANK0            80     67      80
    BANK1            80     40      53
    BANK3            96     34      39
    BANK2            96      0       0

Pointer List with Targets:

    EX_Interrupt_INIT@PtrToFunc	PTR FTN()void  size(1) Largest target is 1
		 -> ISR_CallBack(), 

    EX_INT_CallBack	PTR FTN()void  size(1) Largest target is 1
		 -> Absolute function(), ISR_CallBack(), 

    Heating_and_Cooling@Temperature	PTR unsigned char  size(1) Largest target is 1
		 -> Temperature(BANK3[1]), 

    Heating_and_Cooling@current_Temp	PTR float  size(1) Largest target is 4
		 -> current_Temp(BANK3[4]), 

    EEPROM_Read@Data	PTR unsigned char  size(1) Largest target is 1
		 -> Temperature(BANK3[1]), 


Critical Paths under _main in COMMON

    None.

Critical Paths under _ISR in COMMON

    _ISR_CallBack->_Sense_Temp
    _increase_Temp->_EEPROM_Write
    _decrease_Temp->_EEPROM_Write
    _EEPROM_Write->i1_I2C_Write_Address
    _EEPROM_Write->i1_I2C_Write_Data
    _Sense_Temp->i1___xxtofl
    i1___xxtofl->_ADC_Read
    ___flmul->i1___xxtofl
    ___fldiv->i1___xxtofl
    _Display_Num->_Seperate_Num
    _Seperate_Num->___awdiv

Critical Paths under _main in BANK0

    None.

Critical Paths under _ISR in BANK0

    _ISR->_ISR_CallBack
    _ISR_CallBack->_Sense_Temp
    _Sense_Temp->___fldiv
    ___flmul->i1___xxtofl
    ___fldiv->___flmul

Critical Paths under _main in BANK1

    None.

Critical Paths under _ISR in BANK1

    _ISR->_ISR_CallBack

Critical Paths under _main in BANK3

    _main->_Heating_and_Cooling
    _Master_INIT->___lldiv
    _Heating_and_Cooling->___flge
    ___flge->___xxtofl
    _EEPROM_Read->_I2C_Write_Address
    _EEPROM_Read->_I2C_Write_Data

Critical Paths under _ISR in BANK3

    None.

Critical Paths under _main in BANK2

    None.

Critical Paths under _ISR in BANK2

    None.

Call Graph Tables:

 ---------------------------------------------------------------------------------
 (Depth) Function   	        Calls       Base Space   Used Autos Params    Refs
 ---------------------------------------------------------------------------------
 (0) _main                                                 2     2      0    2583
                                             32 BANK3      2     2      0
                           _ADC_INIT
                       _Buttons_INIT
                        _EEPROM_Read
                  _EX_Interrupt_INIT
                _Heating_and_Cooling
           _Heating_and_Cooling_INIT
                        _Master_INIT
                           _SSD_INIT
                         _Timer_INIT
 ---------------------------------------------------------------------------------
 (1) _Timer_INIT                                           0     0      0       0
 ---------------------------------------------------------------------------------
 (1) _SSD_INIT                                             0     0      0       0
 ---------------------------------------------------------------------------------
 (1) _Master_INIT                                          4     0      4     435
                                             14 BANK3      4     0      4
                            ___lldiv
 ---------------------------------------------------------------------------------
 (2) ___lldiv                                             14     6      8     314
                                              0 BANK3     14     6      8
 ---------------------------------------------------------------------------------
 (1) _Heating_and_Cooling_INIT                             0     0      0       0
 ---------------------------------------------------------------------------------
 (1) _Heating_and_Cooling                                  6     5      1    1751
                                             26 BANK3      6     5      1
                             ___flge
                           ___xxtofl
 ---------------------------------------------------------------------------------
 (2) ___xxtofl                                            14    10      4     676
                                              0 BANK3     14    10      4
 ---------------------------------------------------------------------------------
 (2) ___flge                                              12     4      8     790
                                             14 BANK3     12     4      8
                           ___xxtofl (ARG)
 ---------------------------------------------------------------------------------
 (1) _EX_Interrupt_INIT                                    1     1      0      31
                                              0 BANK3      1     1      0
 ---------------------------------------------------------------------------------
 (1) _EEPROM_Read                                          3     1      2     366
                                              1 BANK3      3     1      2
                           _I2C_NACK
                      _I2C_Read_Data
                          _I2C_Start
                           _I2C_Stop
                  _I2C_Write_Address
                     _I2C_Write_Data
 ---------------------------------------------------------------------------------
 (2) _I2C_Write_Data                                       1     1      0      31
                                              0 BANK3      1     1      0
                     _Wait_IdleState
 ---------------------------------------------------------------------------------
 (2) _I2C_Write_Address                                    1     1      0      31
                                              0 BANK3      1     1      0
                     _Wait_IdleState
 ---------------------------------------------------------------------------------
 (2) _I2C_Stop                                             0     0      0       0
                     _Wait_IdleState
 ---------------------------------------------------------------------------------
 (2) _I2C_Start                                            0     0      0       0
                     _Wait_IdleState
 ---------------------------------------------------------------------------------
 (2) _I2C_Read_Data                                        0     0      0       0
                     _Wait_IdleState
 ---------------------------------------------------------------------------------
 (2) _I2C_NACK                                             0     0      0       0
                     _Wait_IdleState
 ---------------------------------------------------------------------------------
 (3) _Wait_IdleState                                       0     0      0       0
 ---------------------------------------------------------------------------------
 (1) _Buttons_INIT                                         0     0      0       0
 ---------------------------------------------------------------------------------
 (1) _ADC_INIT                                             1     1      0       0
                                              0 BANK3      1     1      0
 ---------------------------------------------------------------------------------
 Estimated maximum stack depth 3
 ---------------------------------------------------------------------------------
 (Depth) Function   	        Calls       Base Space   Used Autos Params    Refs
 ---------------------------------------------------------------------------------
 (4) _ISR                                                  4     4      0   10067
                                             63 BANK0      4     4      0
                   Absolute function *
                       _ISR_CallBack *
 ---------------------------------------------------------------------------------
 (5) _ISR_CallBack                                        41    41      0   10067
                                             62 BANK0      1     1      0
                                              0 BANK1     40    40      0
                    _Disable_Display
        _Disable_Heating_and_Cooling
                        _Display_Num
                         _Sense_Temp
                            ___fladd
                            ___fldiv
                            ___fltol
                      _decrease_Temp
                      _increase_Temp
 ---------------------------------------------------------------------------------
 (6) _increase_Temp                                        0     0      0     414
                       _EEPROM_Write
 ---------------------------------------------------------------------------------
 (6) _decrease_Temp                                        0     0      0     414
                       _EEPROM_Write
 ---------------------------------------------------------------------------------
 (7) _EEPROM_Write                                         3     1      2     414
                                              1 COMMON     3     1      2
                        i1_I2C_Start
                         i1_I2C_Stop
                i1_I2C_Write_Address
                   i1_I2C_Write_Data
 ---------------------------------------------------------------------------------
 (8) i1_I2C_Write_Data                                     1     1      0      22
                                              0 COMMON     1     1      0
                   i1_Wait_IdleState
 ---------------------------------------------------------------------------------
 (8) i1_I2C_Write_Address                                  1     1      0      22
                                              0 COMMON     1     1      0
                   i1_Wait_IdleState
 ---------------------------------------------------------------------------------
 (8) i1_I2C_Stop                                           0     0      0       0
                   i1_Wait_IdleState
 ---------------------------------------------------------------------------------
 (8) i1_I2C_Start                                          0     0      0       0
                   i1_Wait_IdleState
 ---------------------------------------------------------------------------------
 (9) i1_Wait_IdleState                                     0     0      0       0
 ---------------------------------------------------------------------------------
 (6) ___fltol                                             10     6      4     305
                                              0 COMMON    10     6      4
 ---------------------------------------------------------------------------------
 (6) ___fladd                                             20    12      8    2262
                                              0 COMMON    12     4      8
                                              0 BANK0      8     8      0
 ---------------------------------------------------------------------------------
 (6) _Sense_Temp                                           8     4      4    4190
                                             10 COMMON     4     4      0
                                             58 BANK0      4     0      4
                           _ADC_Read
                            ___fldiv
                            ___flmul
                         i1___xxtofl
 ---------------------------------------------------------------------------------
 (7) i1___xxtofl                                          14    10      4     348
                                              2 COMMON     8     4      4
                                              0 BANK0      6     6      0
                           _ADC_Read (ARG)
 ---------------------------------------------------------------------------------
 (7) ___flmul                                             26    18      8    2417
                                              6 BANK0     26    18      8
                           _ADC_Read (ARG)
                          __Umul8_16
                         i1___xxtofl (ARG)
 ---------------------------------------------------------------------------------
 (8) __Umul8_16                                            9     7      2     799
                                              0 COMMON     9     7      2
 ---------------------------------------------------------------------------------
 (6) ___fldiv                                             26    18      8    1425
                                             32 BANK0     26    18      8
                           _ADC_Read (ARG)
                            ___flmul (ARG)
                         i1___xxtofl (ARG)
 ---------------------------------------------------------------------------------
 (7) _ADC_Read                                             2     0      2       0
                                              0 COMMON     2     0      2
 ---------------------------------------------------------------------------------
 (6) _Display_Num                                          1     1      0    1010
                                             11 COMMON     1     1      0
                       _Select_Digit
                       _Seperate_Num
 ---------------------------------------------------------------------------------
 (7) _Seperate_Num                                         3     3      0     944
                                              8 COMMON     3     3      0
                            ___awdiv
                            ___awmod
 ---------------------------------------------------------------------------------
 (8) ___awmod                                              6     2      4     448
                                              0 COMMON     6     2      4
 ---------------------------------------------------------------------------------
 (8) ___awdiv                                              8     4      4     452
                                              0 COMMON     8     4      4
 ---------------------------------------------------------------------------------
 (7) _Select_Digit                                         3     3      0      44
                                              0 COMMON     3     3      0
 ---------------------------------------------------------------------------------
 (6) _Disable_Heating_and_Cooling                          0     0      0       0
 ---------------------------------------------------------------------------------
 (6) _Disable_Display                                      0     0      0       0
 ---------------------------------------------------------------------------------
 (5) Absolute function(Fake)                               0     0      0       0
 ---------------------------------------------------------------------------------
 Estimated maximum stack depth 9
 ---------------------------------------------------------------------------------

 Call Graph Graphs:

 _main (ROOT)
   _ADC_INIT
   _Buttons_INIT
   _EEPROM_Read
     _I2C_NACK
       _Wait_IdleState
     _I2C_Read_Data
       _Wait_IdleState
     _I2C_Start
       _Wait_IdleState
     _I2C_Stop
       _Wait_IdleState
     _I2C_Write_Address
       _Wait_IdleState
     _I2C_Write_Data
       _Wait_IdleState
   _EX_Interrupt_INIT
   _Heating_and_Cooling
     ___flge
       ___xxtofl (ARG)
     ___xxtofl
   _Heating_and_Cooling_INIT
   _Master_INIT
     ___lldiv
   _SSD_INIT
   _Timer_INIT

 _ISR (ROOT)
   Absolute function(Fake) *
   _ISR_CallBack *
     _Disable_Display
     _Disable_Heating_and_Cooling
     _Display_Num
       _Select_Digit
       _Seperate_Num
         ___awdiv
         ___awmod
     _Sense_Temp
       _ADC_Read
       ___fldiv
         _ADC_Read (ARG)
         ___flmul (ARG)
           _ADC_Read (ARG)
           __Umul8_16 (ARG)
           i1___xxtofl (ARG)
             _ADC_Read (ARG)
         i1___xxtofl (ARG)
           _ADC_Read (ARG)
       ___flmul
         _ADC_Read (ARG)
         __Umul8_16 (ARG)
         i1___xxtofl (ARG)
           _ADC_Read (ARG)
       i1___xxtofl
         _ADC_Read (ARG)
     ___fladd
     ___fldiv
       _ADC_Read (ARG)
       ___flmul (ARG)
         _ADC_Read (ARG)
         __Umul8_16 (ARG)
         i1___xxtofl (ARG)
           _ADC_Read (ARG)
       i1___xxtofl (ARG)
         _ADC_Read (ARG)
     ___fltol
     _decrease_Temp
       _EEPROM_Write
         i1_I2C_Start
           i1_Wait_IdleState
         i1_I2C_Stop
           i1_Wait_IdleState
         i1_I2C_Write_Address
           i1_Wait_IdleState
         i1_I2C_Write_Data
           i1_Wait_IdleState
     _increase_Temp
       _EEPROM_Write
         i1_I2C_Start
           i1_Wait_IdleState
         i1_I2C_Stop
           i1_Wait_IdleState
         i1_I2C_Write_Address
           i1_Wait_IdleState
         i1_I2C_Write_Data
           i1_Wait_IdleState

 Address spaces:
Name               Size   Autos  Total    Cost      Usage
BANK3               60     22      27       9       40.6%
BITBANK3            60      0       0       8        0.0%
SFR3                 0      0       0       4        0.0%
BITSFR3              0      0       0       4        0.0%
BANK2               60      0       0      11        0.0%
BITBANK2            60      0       0      10        0.0%
SFR2                 0      0       0       5        0.0%
BITSFR2              0      0       0       5        0.0%
BANK1               50     28      35       7       66.2%
BITBANK1            50      0       0       6        0.0%
SFR1                 0      0       0       2        0.0%
BITSFR1              0      0       0       2        0.0%
BANK0               50     43      50       5      100.0%
BITBANK0            50      0       0       4        0.0%
SFR0                 0      0       0       1        0.0%
BITSFR0              0      0       0       1        0.0%
COMMON               E      E       E       1      100.0%
BITCOMMON            E      0       0       0        0.0%
CODE                 0      0       0       0        0.0%
DATA                 0      0      BA      12        0.0%
ABS                  0      0      BA       3        0.0%
NULL                 0      0       0       0        0.0%
STACK                0      0       0       2        0.0%
EEDATA             100      0       0       0        0.0%


Microchip Technology PIC Macro Assembler V2.20 build 20200408173844 
Symbol Table                                                                                   Fri Apr 30 20:57:14 2021

                        ___fldiv@aexp 0059                          ___fldiv@bexp 0058  
                                   pc 0002                          ___fldiv@sign 0051  
                  __size_of_I2C_Start 0009                                    l68 0AFE  
                        ___awdiv@sign 0075                                    fsr 0004  
                 __Umul8_16@word_mpld 0076                            i1___xxtofl 0BC0  
                         ?i1_I2C_Stop 0070                                   l212 17CB  
                                 l221 1630                                   l230 169B  
                                 l215 15D7                                   l136 15C5  
                                 l209 1606                                   l233 07E9  
                                 l242 16D1                                   l307 1724  
                                 l227 1651                                   l171 1662  
                                 l244 16D7                                   l236 07F5  
                                 l245 16D8                                   l333 15EC  
                                 l350 15B4                                   l238 07F9  
                                 l270 089C                                   l247 16DD  
                                 l239 07FF                                   l343 0E22  
                                 l248 16E6                                   l363 1674  
                                 l631 0BA6                                   l632 0BBF  
                                 l490 0A18                                   l628 0B3A  
                                 l900 0D01                                   l901 0D0D  
                                 l887 0CA0                                   l889 0D37  
                                 _GIE 005F                                   _RC2 003A  
                                 _RC5 003D                                   _RB7 0037  
                                 _PEN 048A                                   _ISR 169C  
                                 _SEN 0488                                   fsr0 0004  
                                 indf 0000                          ___awmod@sign 0075  
                        ___flmul@aexp 0038                          ___flmul@bexp 0039  
                        ___flmul@sign 0033                          ___flmul@temp 003E  
                        ___flmul@prod 003A      __end_of_Heating_and_Cooling_INIT 15ED  
                 _Heating_and_Cooling 0D38                                  ?_ISR 0070  
                        ?i1_I2C_Start 0070                          ___fltol@exp1 0079  
                                l3000 0D2A                                  l3002 0D2E  
                                l3012 1706                                  l3004 0D2F  
                                l3014 171D                                  l3050 0DAF  
                                l3052 0DE7                                  l3044 0D3B  
                                l3300 17A2                                  l3054 0E1E  
                                l3046 0D72                                  l3302 17C0  
                                l3310 15C4                                  l3312 15B0  
                                l3320 0892                                  l3048 0DAA  
                                l3304 1652                                  l3322 0897  
                                l3314 15E2                                  l3306 15C0  
                                l3252 15FA                                  l3260 15D4  
                                l3316 0861                                  l2700 0B1C  
                                l3308 15C3                                  l3340 0AA4  
                                l3254 15FA                                  l3270 164E  
                                l3262 1623                                  l3318 0885  
                                l2710 0B7E                                  l2702 0B32  
                                l3350 0AC7                                  l3342 0AB3  
                                l3334 0A93                                  l3256 1602  
                                l3264 1628                                  l3272 168B  
                                l3280 07EF                                  l2712 0B82  
                                l2704 0B4E                                  l3360 0AFA  
                                l3352 0AD7                                  l3344 0AB8  
                                l3336 0A99                                  l3266 1641  
                                l3258 15CF                                  l3274 1690  
                                l3282 07FA                                  l2714 0BBC  
                                l2706 0B56                                  l3362 0B03  
                                l3354 0AE3                                  l3346 0ABD  
                                l3338 0A9F                                  l3268 1646  
                                l3284 16CC                                  l3276 1696  
                                l3292 1666                                  l2716 0BBE  
                                l2708 0B5A                                  l3364 0B0E  
                                l3356 0AE9                                  l3348 0AC2  
                                l3286 16DE                                  l3278 07E4  
                                l3294 166C                                  l3366 0B14  
                                l3358 0AF4                                  l3288 16E3  
                                l2680 09CF                                  l3296 179A  
                                l2690 0A00                                  l2682 09D3  
                                l2674 09B1                                  l3298 179E  
                                l2692 0A01                                  l2684 09D7  
                                l2676 09C3                                  l2694 0A0A  
                                l2686 09E0                                  l2678 09C6  
                                l2960 0C7F                                  l2688 09F2  
                                l2696 0A10                                  l2962 0C84  
                                l2980 0CCA                                  l2972 0CB1  
                                l2964 0C88                                  l2990 0CF7  
                                l2982 0CCE                                  l2974 0CB6  
                                l2966 0C98                                  l2992 0CFB  
                                l2984 0CDC                                  l2976 0CBA  
                                l2968 0CA8                                  l2994 0D05  
                                l2986 0CE5                                  l2978 0CC3  
                                l2996 0D0F                                  l2988 0CEC  
                                l2998 0D25                                  _ADFM 04FF  
                                _ADON 00F8                                  _CHS1 00FC  
                                _INT1 00D2                                  _INT2 00D1  
                                u4300 0CC9                                  u4301 0CC8  
                                u4400 1716                                  u4320 0CEB  
                                u3600 09F2                                  u4401 1712  
                                u4321 0CEA                                  u3601 09F1  
                                u4315 0CDD                                  u4340 0CFB  
                                u4260 0C84                                  u3620 0A10  
                                u4341 0CFA                                  u4261 0C83  
                                u3621 0A0F                                  u3605 09EE  
                                u4414 1719                                  u3630 0B32  
                                u4350 0D01                                  u4270 0C88  
                                u3631 0B31                                  u4351 0D00  
                                u4335 0CF0                                  u4271 0C87  
                                u3615 0A02                                  u3640 0B4E  
                                u4360 0D05                                  u4280 0CA8  
                                u4440 0D72                                  u3560 09C3  
                                u3641 0B4D                                  u4361 0D04  
                                u4281 0CA7                                  u4441 0D71  
                                u3561 09C2                                  u3650 0B5A  
                                u4370 0D1A                                  u4450 0DAA  
                                u3651 0B59                                  u4451 0DA9  
                                _PEIE 005E                                  u4380 0D2A  
                                u4460 0DE7                                  u3580 09D7  
                                u3661 0B69                                  u4381 0D29  
                                u4461 0DE6                                  u3581 09D6  
                                _INTE 005C                                  u3670 0B82  
                                u3662 0B6A                                  u4390 0D2E  
                                u4470 0E1E                                  _INTF 0059  
                                u3671 0B81                                  u3663 0B6F  
                                u4391 0D2D                                  u4375 0D15  
                                u4295 0CBB                                  u4471 0E1D  
                                u3575 09C8                                  u4800 16DD  
                                u3664 0B70                                  u4801 16DC  
                                u3681 0B91                                  u3665 0B75  
                                u3690 0BBC                                  u3682 0B92  
                                u3666 0B76                                  u4810 17C8  
                                u3691 0BBB                                  u3683 0B97  
                                u3595 09D9                                  u4811 17C4  
                                u3684 0B98                                  _RCEN 048B  
                                u3685 0B9D                                  u4750 1602  
                                u3686 0B9E                                  u4830 0AE9  
                                u4751 1601                                  u3695 0BB8  
                                u4831 0AE8                                  u4760 1606  
                                u4824 17CB                                  u4840 0AFA  
                                i1l81 17FF                                  u4761 1605  
                                u4841 0AF9                                  u4770 07EF  
                                u4850 0B03                                  u4771 07EE  
                                u4907 0B09                                  u4851 0B02  
                                i1l84 085A                                  u4780 07F9  
                                u4860 0B14                                  i1l77 17FC  
                                u4917 1721                                  u4781 07F8  
                                u4861 0B13                                  u4790 16D7  
                                u4791 16D6                                  i1l88 085D  
                                u4897 0AEF                                  _TMR1 000E  
                                _RSEN 0489                                  _Sec1 00CC  
                                _Sec5 00CA                      __end_of_I2C_NACK 1652  
                    __end_of_ADC_INIT 1725                                  _main 0A93  
                                btemp 007E                      __end_of_I2C_Stop 1631  
                    __end_of_ADC_Read 1615                                  start 0012  
                     ___fldiv@new_exp 0052                  ?_Heating_and_Cooling 01AA  
          __size_of_EX_Interrupt_INIT 0012              __end_ofi1_I2C_Write_Data 16CC  
                               ??_ISR 005F                  __end_of_EEPROM_Write 1706  
 __end_of_Disable_Heating_and_Cooling 15C0           _Disable_Heating_and_Cooling 15BA  
                       ??_Master_INIT 01A2                 __end_of_decrease_Temp 1800  
                 __end_of_Display_Num 1748                         ___fltol@sign1 0078  
                               _ADCS2 04FE                       __end_of___fladd 064C  
                               ?_main 0070                                 _ACKEN 048C  
                               _ACKDT 048D                       __end_of___fldiv 1000  
                     __end_of___awdiv 09B1                       __end_of___awmod 094A  
                     __end_of___flmul 03B8                       __end_of___fltol 0A93  
                     __end_of___lldiv 0A19                       ___awdiv@divisor 0070  
                               _PCFG0 04F8                                 _PCFG3 04FB  
                               i1l221 1622                                 i1l117 07E0  
                               i1l142 1799                                 i1l310 160A  
                               i1l230 1640                                 i1l215 15CE  
                               i1l313 1614                                 i1l209 15F9  
                               i1l233 16B7                                 i1l146 1755  
                               i1l154 1747                                 i1l139 15AF  
                               i1l148 1758                                 i1l236 16C1  
                               i1l149 176B                                 i1l318 08F0  
                               i1l238 16C5                                 i1l239 16CB  
                               i1l336 15BF                                 i1l267 1705  
                               i1l620 0949                                 i1l607 09B0  
                               i1l640 0A92                                 i1l368 16A4  
                               i1l650 0A92                                 i1l803 0E7F  
                               i1l900 0C45                                 i1l805 0FFF  
                               i1l901 0C51                                 i1l751 04C2  
                               i1l647 0A7D                                 i1l760 064B  
                               i1l753 0497                                 i1l827 0FF3  
                               i1l819 0F71                                 i1l843 03B7  
                               i1l747 041B                                 i1l772 05B9  
                               i1l862 0815                                 i1l790 064B  
                               i1l855 03AB                                 i1l864 0827  
                               i1l768 0593                                 i1l849 0323  
                               i1l778 05DB                                 i1l789 063D  
                               i1l887 0BE4                                 i1l889 0C7B  
                     ___awdiv@counter 0074                                 _PORTD 0008  
                               _SSPM3 00A3                                 _TRISB 0086  
                               _TRISD 0088                                 _SSPEN 00A5  
                               _SSPIF 0063                __size_of_increase_Temp 0036  
              __size_of_I2C_Read_Data 001B                      __end_of_SSD_INIT 15C6  
                       ?_Buttons_INIT 0070                                 fpbase 0000  
                   __end_of_I2C_Start 15D8                                 pclath 000A  
         __end_ofi1_I2C_Write_Address 1641                                 status 0003  
                               wtemp0 007E                      EEPROM_Write@Data 0072  
                 __size_ofi1_I2C_Stop 000E                      EEPROM_Write@page 0073  
                __size_of_EEPROM_Read 003F                 ??_Heating_and_Cooling 01AB  
                     __initialization 0015                          __end_of_main 0B1C  
                      _Wait_IdleState 15FA                                ??_main 01B0  
                         ?i1___xxtofl 0072              __size_of_Disable_Display 0005  
                 __end_of_Master_INIT 17CC                        ??_Buttons_INIT 0190  
                              _ADRESH 001E                                _ADRESL 009E  
                    ___awdiv@dividend 0072                                i1l2110 15ED  
                              i1l2120 0954                                i1l2200 080B  
                              i1l2112 15F5                                i1l2130 0965  
                              i1l2122 0956                                i1l2114 094A  
                              i1l2202 080F                                i1l2210 15C6  
                              i1l2140 097D                                i1l2132 096B  
                              i1l2124 095A                                i1l2116 094B  
                              i1l2300 0E93                                i1l2204 081E  
                              i1l2108 15ED                                i1l2212 15CB  
                              i1l2220 1637                                i1l3100 06C9  
                              i1l2142 098E                                i1l2134 096E  
                              i1l2150 09A2                                i1l2126 095F  
                              i1l2118 094F                                i1l2302 0E97  
                              i1l2206 0823                                i1l2214 1615  
                              i1l2222 163B                                i1l2230 16E8  
                              i1l3102 06FC                                i1l3110 0745  
                              i1l2152 09A7                                i1l2144 0994  
                              i1l2136 0975                                i1l2128 0963  
                              i1l2160 08F2                                i1l2232 176D  
                              i1l2320 0ED8                                i1l2312 0EAE  
                              i1l2216 161A                                i1l2224 16B2  
                              i1l3120 077A                                i1l3112 074B  
                              i1l2234 1749                                i1l2154 09AC  
                              i1l2146 0995                                i1l2138 0979  
                              i1l2170 0906                                i1l2162 08F6  
                              i1l2330 0EF6                                i1l2322 0EDA  
                              i1l2314 0EC0                                i1l2306 0EA0  
                              i1l2410 0069                                i1l2402 0057  
                              i1l2218 1632                                i1l2226 16BD  
                              i1l3130 0794                                i1l3122 0780  
                              i1l3114 076C                                i1l3106 0703  
                              i1l2148 099C                                i1l2180 091E  
                              i1l2172 090C                                i1l2164 08FB  
                              i1l2252 1607                                i1l2324 0EDF  
                              i1l2332 0EFF                                i1l2340 0F24  
                              i1l2316 0EC8                                i1l2308 0EA5  
                              i1l2260 0E2A                                i1l2500 0307  
                              i1l2420 0085                                i1l2412 006E  
                              i1l2404 005E                                i1l2228 16C6  
                              i1l3140 07B5                                i1l3132 0799  
                              i1l3124 0782                                i1l3116 0772  
                              i1l3108 0742                                i1l3060 065C  
                              i1l3220 169C                                i1l2238 175B  
                              i1l2190 0940                                i1l2182 0928  
                              i1l2174 090F                                i1l2166 08FD  
                              i1l2158 08F1                                i1l2254 160E  
                              i1l2350 0F41                                i1l2342 0F2A  
                              i1l2334 0F11                                i1l2326 0EF1  
                              i1l2318 0ED0                                i1l2270 0E3F  
                              i1l2262 0E30                                i1l2510 0328  
                              i1l2502 0308                                i1l2430 009A  
                              i1l2422 008A                                i1l2414 0073  
                              i1l2406 0064                                i1l3142 07C0  
                              i1l3134 07A2                                i1l3126 0786  
                              i1l3118 0773                                i1l3070 0677  
                              i1l3062 065D                                i1l2192 0945  
                              i1l2184 092E                                i1l2176 0916  
                              i1l2168 0901                                i1l2360 0F56  
                              i1l2352 0F42                                i1l2344 0F32  
                              i1l2336 0F12                                i1l2328 0EF5  
                              i1l2280 0E57                                i1l2272 0E47  
                              i1l2264 0E34                                i1l2512 032D  
                              i1l2520 035E                                i1l2504 030C  
                              i1l2440 00B6                                i1l2432 009F  
                              i1l2424 0090                                i1l2416 007B  
                              i1l2408 0068                                i1l2600 17E2  
                              i1l3136 07A8                                i1l3144 07C3  
                              i1l3128 078F                                i1l3080 0693  
                              i1l3072 067C                                i1l3064 0664  
                              i1l3056 064C                                i1l2186 0935  
                              i1l2178 091A                                i1l2370 0F7B  
                              i1l2362 0F5A                                i1l2354 0F4B  
                              i1l2346 0F34                                i1l2338 0F20  
                              i1l2290 0E6C                                i1l2282 0E5D  
                              i1l2274 0E48                                i1l2266 0E35  
                              i1l2258 0E23                                i1l2530 0391  
                              i1l2522 036B                                i1l2514 033B  
                              i1l2506 0320                                i1l2450 00E1  
                              i1l2442 00BB                                i1l2434 00A7  
                              i1l2426 0094                                i1l2418 007D  
                              i1l2602 17F0                                i1l2610 0837  
                              i1l3146 07C8                                i1l3138 07AD  
                              i1l3090 06AF                                i1l3082 0697  
                              i1l3074 0681                                i1l3066 066E  
                              i1l3058 0650                                i1l2620 15AB  
                              i1l2188 093B                                i1l2380 0FB9  
                              i1l2372 0F89                                i1l2364 0F6E  
                              i1l2348 0F3D                                i1l2356 0F51  
                              i1l2292 0E74                                i1l2284 0E61  
                              i1l2268 0E3A                                i1l2276 0E4A  
                              i1l2196 0802                                i1l2540 03AF  
                              i1l2532 0397                                i1l2524 0376  
                              i1l2516 033F                                i1l2460 017E  
                              i1l2452 00FE                                i1l2436 00A9  
                              i1l2428 0095                                i1l2612 083C  
                              i1l3148 07DD                                i1l3092 06B5  
                              i1l3084 069F                                i1l3076 0688  
                              i1l3068 0672                                i1l2622 15BA  
                              i1l2630 172C                                i1l2390 0FE3  
                              i1l2382 0FC7                                i1l2374 0F8D  
                              i1l2358 0F55                                i1l2294 0E75  
                              i1l2286 0E62                                i1l2278 0E52  
                              i1l2198 0804                                i1l2534 039F  
                              i1l2526 0385                                i1l2518 0358  
                              i1l2470 01E1                                i1l2462 0187  
                              i1l2454 011A                                i1l2446 00C4  
                              i1l2438 00B1                                i1l2550 0BDC  
                              i1l2614 0840                                i1l2606 0828  
                              i1l3094 06BF                                i1l3086 06A3  
                              i1l3078 068D                                i1l3424 1763  
                              i1l2632 1731                                i1l2392 0FE9  
                              i1l2384 0FD6                                i1l2376 0FA6  
                              i1l2368 0F76                                i1l2288 0E67  
                              i1l2296 0E77                                i1l2536 03A3  
                              i1l2528 038F                                i1l2480 0281  
                              i1l2472 01FA                                i1l2464 0197  
                              i1l2456 0146                                i1l2448 00D4  
                              i1l2560 0BFE                                i1l2552 0BEC  
                              i1l2544 0BC3                                i1l2624 089D  
                              i1l2800 0413                                i1l2720 0A19  
                              i1l2616 084E                                i1l2608 082F  
                              i1l3096 06C2                                i1l3088 06A9  
                              i1l2634 1737                                i1l2394 0FED  
                              i1l2386 0FDA                                i1l2378 0FAC  
                              i1l2298 0E87                                i1l2538 03A4  
                              i1l2490 02EF                                i1l2482 02A7  
                              i1l2474 0217                                i1l2466 01B4  
                              i1l2458 0162                                i1l2570 0C29  
                              i1l2562 0C07                                i1l2546 0BC8  
                              i1l2810 0431                                i1l2802 0421  
                              i1l2730 0A43                                i1l2722 0A24  
                              i1l2636 173E                                i1l2628 1726  
                              i1l2396 0FEF                                i1l2388 0FE2  
                              i1l2492 02F3                                i1l2484 02CF  
                              i1l2476 0244                                i1l2468 01C4  
                              i1l2580 0C53                                i1l2572 0C30  
                              i1l2564 0C0E                                i1l2556 0BF5  
                              i1l2548 0BCC                                i1l2900 05A0  
                              i1l2820 0445                                i1l2812 0435  
                              i1l2804 0425                                i1l2732 0A4B  
                              i1l2638 1744                                i1l2494 02F4  
                              i1l2486 02D8                                i1l2478 0254  
                              i1l2582 0C69                                i1l2574 0C3B  
                              i1l2566 0C12                                i1l2558 0BFA  
                              i1l2910 05BD                                i1l2830 0459  
                              i1l2822 0449                                i1l2814 0439  
                              i1l2806 0429                                i1l2742 0A59  
                              i1l2734 0A4D                                i1l2726 0A2D  
                              i1l2496 02FD                                i1l2488 02E6  
                              i1l2584 0C6E                                i1l2576 0C3F  
                              i1l2568 0C20                                i1l2912 05C0  
                              i1l2904 05A9                                i1l2920 05CD  
                              i1l2840 047D                                i1l2832 045D  
                              i1l2824 044D                                i1l2816 043D  
                              i1l2808 042D                                i1l2760 03BD  
                              i1l2752 0A72                                i1l2744 0A62  
                              i1l2736 0A51                                i1l2728 0A42  
                              i1l2592 17CC                                i1l2498 0303  
                              i1l2586 0C72                                i1l2578 0C49  
                              i1l2930 05E0                                i1l2922 05CE  
                              i1l2914 05C2                                i1l2906 05B4  
                              i1l2850 04A8                                i1l2842 048A  
                              i1l2834 0461                                i1l2826 0451  
                              i1l2818 0441                                i1l2770 03D4  
                              i1l2762 03C5                                i1l2754 0A82  
                              i1l2746 0A6B                                i1l2594 17D3  
                              i1l2588 0C73                                i1l2932 05E5  
                              i1l2940 061B                                i1l2924 05D2  
                              i1l2916 05C7                                i1l2908 05B8  
                              i1l2860 04C6                                i1l2852 04AC  
                              i1l2844 0492                                i1l2828 0455  
                              i1l2836 0465                                i1l2780 03EC  
                              i1l2772 03DC                                i1l2764 03C9  
                              i1l2756 0A87                                i1l2596 17DB  
                              i1l2950 0633                                i1l2942 0620  
                              i1l2934 05F3                                i1l2926 05D8  
                              i1l2918 05C9                                i1l2870 04EF  
                              i1l2862 04CB                                i1l2854 04AD  
                              i1l2846 049B                                i1l2838 0466  
                              i1l2790 03FE                                i1l2782 03F2  
                              i1l2774 03DD                                i1l2766 03CA  
                              i1l2758 03B8                                i1l2598 17E0  
                              u300_20 009A                                i1l2952 0637  
                              i1l2944 0625                                i1l2936 05F7  
                              i1l2880 0505                                i1l2872 04F3  
                              i1l2856 04B8                                i1l2848 04A6  
                              i1l2792 0403                                i1l2784 03F3  
                              i1l2768 03CF                                i1l2776 03DF  
                              u300_21 0099                                i1l2954 0639  
                              i1l2946 062D                                i1l2938 0617  
                              i1l2890 056F                                i1l2882 0510  
                              i1l2874 04FE                                i1l2866 04D4  
                              i1l2858 04BC                                i1l2794 0408  
                              i1l2786 03F9                                i1l2778 03E7  
                              i1l2956 0646                                i1l2948 0632  
                              i1l2892 0571                                i1l2876 0500  
                              i1l2868 04EB                                i1l2884 0515  
                              i1l2796 0410                                i1l2788 03FD  
                              i1l2958 064A                                i1l2894 0576  
                              i1l2886 052B                                i1l2878 0504  
                              i1l2798 0411                                u301_20 009F  
                              i1l2888 056B                                i1l2896 0585  
                              u301_21 009E                                i1l2898 059B  
                              u302_20 00B6                                u310_21 01D3  
                              u302_21 00B5                                u310_22 01DA  
                              u310_23 01E1                                _INTEDG 040E  
                              u303_20 00BB                                u303_21 00BA  
                              u311_25 01E3                                u240_20 094F  
                              u400_20 04F3                                u240_21 094E  
                              u312_21 0209                                u304_21 010C  
                              u400_21 04F2                                u312_22 0210  
                              u304_22 0113                                u312_23 0217  
                              u304_23 011A                                u320_25 02E8  
                              u241_20 095A                                u321_20 02F3  
                              u401_20 0504                                u241_21 0959  
                              u321_21 02F2                                u313_21 0236  
                              u305_21 0128                                u401_21 0503  
                              u313_22 023D                                u305_22 012F  
                              u313_23 0244                                u305_23 0136  
                              u242_20 096B                                u250_20 08F6  
                              u330_20 036B                                u410_20 05B8  
                              u242_21 096A                                u250_21 08F5  
                              u330_21 036A                                u314_21 0263  
                              u306_21 0154                                u410_21 05B7  
                              u314_22 026A                                u306_22 015B  
                              u314_23 0271                                u306_23 0162  
                              u330_25 0367                                u322_25 02F6  
                              u402_25 0509                                u251_20 0901  
                              u331_20 0385                                u323_20 0307  
                              u315_20 028D                                u411_20 05BD  
                              u403_20 052B                                u251_21 0900  
                              u331_21 0384                                u323_21 0306  
                              u307_21 0170                                u411_21 05BC  
                              u403_21 052A                                u307_22 0177  
                              u307_23 017E                                u403_23 0527  
                              u243_25 096F                                u331_25 0381  
                              u315_25 0288                            _Select_Seg 006F  
                              u244_20 097D                                u252_20 090C  
                              u332_20 03A3                                u324_20 030C  
                              u420_20 0617                                u412_20 05C7  
                              u244_21 097C                                u252_21 090B  
                              u332_21 03A2                                u324_21 030B  
                              u316_21 0299                                u420_21 0616  
                              u412_21 05C6                                u404_21 0544  
                              u316_22 02A0                                u404_22 0545  
                              u316_23 02A7                                u404_23 054A  
                              u404_24 054B                                u260_25 0816  
                              u308_25 0180                                u340_25 0C34  
                              u404_25 0550                                u404_26 0551  
                              u261_20 0823                                u325_20 0320  
                              u317_20 02B5                                u341_20 0C3F  
                              u333_20 0BC8                                u421_20 0620  
                              u413_20 05CD                                u405_20 0558  
                              u261_21 0822                                u325_21 031F  
                              u309_21 01A6                                u341_21 0C3E  
                              u333_21 0BC7                                u421_21 061F  
                              u413_21 05CC                                u405_21 0559  
                              u309_22 01AD                                u405_22 055E  
                              u309_23 01B4                                u405_23 055F  
                              u245_25 097E                                u253_25 0910  
                              u317_25 02B0                                u246_20 098E  
                              u254_20 091E                                u270_20 0E61  
                              u326_20 0327                                u342_20 0C45  
                              u334_20 0BCC                                u422_20 0625  
                              u414_20 05D2                                u406_20 0576  
                              u238_20 15F5                                u262_20 16BD  
                              u350_20 0837                                u246_21 098D  
                              u254_21 091D                                u270_21 0E60  
                              u326_21 0326                                u318_21 02C1  
                              u342_21 0C44                                u334_21 0BCB  
                              u422_21 0624                                u414_21 05D1  
                              u406_21 0575                                u238_21 15F4  
                              u262_21 16BC                                u350_21 0836  
                              u318_22 02C8                                u318_23 02CF  
                              u246_25 098A                                u255_20 0928  
                              u351_20 1731                                u271_20 0E67  
                              u327_20 032D                                u343_20 0C49  
                              u335_20 0BEC                                u423_20 0632  
                              u415_20 05D8                                u407_20 059B  
                              u239_20 15F9                                u263_20 16C5  
                              u255_21 0927                                u351_21 1730  
                              u271_21 0E66                                u327_21 032C  
                              u343_21 0C48                                u335_21 0BEB  
                              u423_21 0631                                u415_21 05D7  
                              u407_21 059A                                u239_21 15F8  
                              u263_21 16C4                                u247_25 0996  
                              u255_25 0924                                u319_25 02D1  
                              u248_20 09A2                                u280_20 0F11  
                              u272_20 0E6C                                u328_20 033F  
                              u344_20 0C5E                                u424_20 0637  
                              u416_20 05DF                                u408_20 05A0  
                              u248_21 09A1                                u280_21 0F10  
                              u272_21 0E6B                                u328_21 033E  
                              u424_21 0636                                u416_21 05DE  
                              u408_21 059F                                u256_25 092F  
                              u280_25 0F0D                                u344_25 0C59  
                              u336_25 0BFF                                u249_20 09A7  
                              u257_20 093B                                u281_20 0F2A  
                              u273_20 0E87                                u329_20 034E  
                              u345_20 0C6E                                u337_20 0C0D  
                              u425_20 064A                                u417_20 05E5  
                              u249_21 09A6                                u257_21 093A  
                              u281_21 0F29                                u273_21 0E86  
                              u345_21 0C6D                                u337_21 0C0C  
                              u425_21 0649                                u417_21 05E4  
                              u329_25 0349                                u409_25 05AD  
                              u258_20 0940                                u266_20 160E  
                              u290_20 0F7B                                u282_20 0F32  
                              u274_20 0EA5                                u346_20 0C72  
                              u418_20 05F7                                u370_20 0A24  
                              u450_20 0659                                u258_21 093F  
                              u266_21 160D                                u290_21 0F7A  
                              u282_21 0F31                                u274_21 0EA4  
                              u346_21 0C71                                u418_21 05F6  
                              u370_21 0A23                                u338_25 0C21  
                              u291_20 0F8D                                u275_20 0EDF  
                              u267_20 0E34                                u259_20 080F  
                              u339_20 0C2F                                u419_20 0608  
                              u371_20 0A3B                                u347_20 17D3  
                              u451_20 0664                                u291_21 0F8C  
                              u275_21 0EDE                                u267_21 0E33  
                              u259_21 080E                                u339_21 0C2E  
                              u347_21 17D2                                u451_21 0663  
                              u283_25 0F36                                u419_25 0603  
                              u371_25 0A36                                u292_20 0F9C  
                              u284_20 0F41                                u268_20 0E3A  
                              u380_20 03C9                                u372_20 0A51  
                              u348_20 17DB                                u452_20 0677  
                              u284_21 0F40                                u268_21 0E39  
                              u380_21 03C8                                u372_21 0A50  
                              u348_21 17DA                                u452_21 0676  
                              u292_25 0F97                                u276_25 0EE1  
                              u460_25 0757                                u293_20 0FB9  
                              u269_20 0E3F                                u381_20 03CF  
                              u373_20 0A58                                u349_20 082F  
                              u461_20 077A                                u453_20 067C  
                              u293_21 0FB8                                u269_21 0E3E  
                              u381_21 03CE                                u373_21 0A57  
                              u349_21 082E                                u461_21 0779  
                              u453_21 067B                                u293_25 0FB5  
                              u285_25 0F44                                u277_25 0EEA  
                              u294_20 0FD6                                u286_20 0F55  
                              u278_20 0EF5                                u390_20 0486  
                              u382_20 03D4                                u462_20 0780  
                              u454_20 0688                                u294_21 0FD5  
                              u286_21 0F54                                u278_21 0EF4  
                              u390_21 0484                                u382_21 03D3  
                              u462_21 077F                                u454_21 0687  
                              u294_25 0FD2                                u374_25 0A5A  
                              u295_20 0FED                                u287_20 0F5A  
                              u391_20 0487                                u383_20 03F2  
                              u375_20 0A6A                                u463_20 078F  
                              u455_20 0693                                u295_21 0FEC  
                              u287_21 0F59                                u383_21 03F1  
                              u375_21 0A69                                u463_21 078E  
                              u455_21 0692                                u279_25 0EF8  
                              u288_20 0F6E                                u296_20 0068  
                              u392_20 049B                                u384_20 03FD  
                              u376_20 0A71                                u464_20 0799  
                              u456_20 06B5                                u448_20 0650  
                              u288_21 0F6D                                u296_21 0067  
                              u392_21 049A                                u384_21 03FC  
                              u376_21 0A70                                u464_21 0798  
                              u456_21 06B4                                u448_21 064F  
                              u289_20 0F75                                u297_20 006E  
                              u393_20 04AC                                u385_20 0403  
                              u465_20 07A2                                u457_20 06C8  
                              u449_20 0658                                u289_21 0F74  
                              u297_21 006D                                u393_21 04AB  
                              u385_21 0402                                u465_21 07A1  
                              u457_21 06C7                                u449_21 0656  
                              u377_25 0A74                                u298_20 0073  
                              u386_20 0408                                u378_20 0A82  
                              u466_20 07AD                                u298_21 0072  
                              u386_21 0407                                u378_21 0A81  
                              u466_21 07AC                                u394_25 04B1  
                              u458_25 06CE                                u299_20 0094  
                              u395_20 04C2                                u387_20 0421  
                              u379_20 0A87                                u467_20 07C0  
                              u459_20 074B                                u299_21 0093  
                              u395_21 04C1                                u387_21 0420  
                              u379_21 0A86                                u467_21 07BF  
                              u459_21 074A                                u396_20 04C6  
                              u388_20 0425                                u468_20 07C8  
                              u396_21 04C5                                u388_21 0424  
                              u468_21 07C7                                u397_20 04CB  
                              u389_20 047D                                u397_21 04CA  
                              u389_21 047C                                u389_25 0479  
                              u398_21 04DD                                u398_22 04E4  
                              u398_23 04EB                                u399_20 04EF  
                              u399_21 04EE              _Heating_and_Cooling_INIT 15E2  
                          __i1fptable 004E                                _TMR1IE 0460  
                              _TMR1IF 0060                                _TMR1CS 0081  
                              _TMR1ON 0080                                _SSPADD 0093  
                              _TRISB0 0430                                _TRISB1 0431  
                              _TRISA4 042C                                _TRISB2 0432  
                              _TRISA5 042D                                _TRISC2 043A  
                              _TRISC3 043B                                _TRISC4 043C  
                              _TRISB7 0437                                _TRISC5 043D  
                              _SSPBUF 0013                      __end_of___xxtofl 0D38  
                          _Sense_Temp 089D                            _Sleep_Mode 00D4  
                       _increase_Temp 0828                                _SetNum 0063  
              __end_of_Wait_IdleState 1607                           _Display_Num 1725  
                       _I2C_Read_Data 16CC                                ___flge 0B1C  
                           ??___fladd 0020                             ??___fldiv 0048  
                          _Timer_INIT 1652                             ??___awdiv 0074  
                           ??___awmod 0074                             ??___flmul 002E  
                           ??___fltol 0074                       fp__ISR_CallBack 0054  
                           ??___lldiv 0198                      ___awdiv@quotient 0076  
                     ___awmod@divisor 0070                       ___awmod@counter 0074  
                           ?_I2C_NACK 0070                                fptable 004D  
                           ?_ADC_INIT 0070                                fptotal 0000  
                  __size_of__Umul8_16 0027                             ?_I2C_Stop 0070  
                           ?_ADC_Read 0070                                saved_w 007E  
           __size_ofi1_Wait_IdleState 000D          ISR_CallBack@Heating_LED_Flag 00C8  
                          ___flge@ff1 019E                            ___flge@ff2 01A2  
                        ___xxtofl@arg 019A                          ___xxtofl@exp 0199  
                        ___xxtofl@val 0190                  __size_ofi1_I2C_Start 0009  
             __end_of__initialization 0049                         ?_Select_Digit 0070  
                 __size_ofi1___xxtofl 00BC                            ___fltol@f1 0070  
                      ?_increase_Temp 0070                 __size_of_EEPROM_Write 001F  
                      ?_I2C_Read_Data 0070                       ?_Wait_IdleState 0070  
                      __pcstackCOMMON 0070                          __pidataBANK0 15D8  
                        __pidataBANK1 0003                          __pidataBANK3 15B5  
                           ?_SSD_INIT 0070                           _Master_INIT 179A  
                        ??i1_I2C_Stop 0070                         ?_ISR_CallBack 0070  
                          ??_I2C_NACK 0190                            ??_ADC_INIT 0190  
                          ??_I2C_Stop 0190                            ??_ADC_Read 0072  
                       ISR_CallBack@i 00CF                     ??_Disable_Display 0070  
                        _EEPROM_Write 16E7                            __pbssBANK0 006D  
                          __pbssBANK1 00C8                         ?_Seperate_Num 0070  
                      ??_Select_Digit 0070                        i1___xxtofl@arg 0022  
                      i1___xxtofl@exp 0021                        i1___xxtofl@val 0072  
                         ?_Sense_Temp 005A                    __end_ofi1_I2C_Stop 1623  
                   __end_of__Umul8_16 0828                            __pmaintext 0A93  
                   _I2C_Write_Address 1688                               ?___flge 019E  
                         ?_Timer_INIT 0070                     ?i1_I2C_Write_Data 0070  
                __end_of_Buttons_INIT 15B5                            __pintentry 0004  
                  ?_I2C_Write_Address 0070               __size_of_I2C_Write_Data 001F  
                          ??_SSD_INIT 0190                               _ACKSTAT 048E  
                  ??i1_I2C_Write_Data 0070                        ??_ISR_CallBack 005E  
             Master_INIT@I2C_BaudRate 019E                   ??_I2C_Write_Address 0190  
                           ?___xxtofl 0190                               _GO_DONE 00FA  
                             _SSPCON2 0091                               _SSPSTAT 0094  
__size_of_Disable_Heating_and_Cooling 0006                        ??_Seperate_Num 0078  
                             i1fpbase 0053                       ??_increase_Temp 0074  
                           _I2C_Start 15CF                       ??_I2C_Read_Data 0190  
           __end_of_I2C_Write_Address 169C       Heating_and_Cooling@current_Temp 01AF  
                     __size_of___flge 00A4                               ___fladd 03B8  
                             ___fldiv 0E23                               ___awdiv 094A  
                             ___awmod 08F1                               ___flmul 0057  
                             ___fltol 0A19                               ___lldiv 09B1  
                         _Temperature 01B6                          ??i1___xxtofl 0076  
                             __ptext1 1652                               __ptext2 15C0  
                             __ptext3 179A                               __ptext4 09B1  
                             __ptext5 15E2                               __ptext6 0D38  
                             __ptext7 0C7C                               __ptext8 0B1C  
                             __ptext9 1663                   __size_of__i1fptable 0009  
                        __size_of_ISR 0015                            ??___xxtofl 0194  
                    ___awmod@dividend 0072            ??_Heating_and_Cooling_INIT 0190  
                 __size_of_Sense_Temp 0054                      i1_Wait_IdleState 15ED  
                end_of_initialization 0049                   __size_of_Timer_INIT 0011  
                       ??_EEPROM_Read 0193           __end_of_Heating_and_Cooling 0E23  
              __size_of_decrease_Temp 0034                            ?_I2C_Start 0070  
                     ___lldiv@divisor 0190                    __end_ofi1___xxtofl 0C7C  
                     ___lldiv@counter 019D                          ?_Display_Num 0070  
        __size_ofi1_I2C_Write_Address 0010                             _PORTAbits 0005  
                           _PORTBbits 0006                  __end_of_Select_Digit 176C  
      Heating_and_Cooling@Temperature 01AA                     Select_Digit@Digit 0072  
                         ___fladd@grs 007B                         ___xxtofl@sign 0198  
                   __size_of_I2C_NACK 0011                     __size_of_ADC_INIT 001F  
                         ___fldiv@grs 0054                           ___fldiv@rem 004D  
                   __size_of_I2C_Stop 000E                     __size_of_ADC_Read 000E  
                         ___flmul@grs 0034                      ??_Wait_IdleState 0190  
                __end_of_ISR_CallBack 07E1            __size_of_I2C_Write_Address 0014  
               __size_of_Buttons_INIT 0005                   __end_of_EEPROM_Read 089D  
                      _I2C_Write_Data 07E1                       Display_Num@Temp 007B  
                      __end_of___flge 0BC0                  __end_of_Seperate_Num 179A  
                        ?_Master_INIT 019E                         _decrease_Temp 17CC  
                     _Disable_Display 15AB                     __size_of_SSD_INIT 0006  
                 start_initialization 0015                           __end_of_ISR 16B1  
                       ??i1_I2C_Start 0070                          _Buttons_INIT 15B0  
                         ??_I2C_Start 0190                             _Num_Digit 006D  
                        ??_Sense_Temp 007A                __end_of_I2C_Write_Data 0800  
                            ??___flge 01A6                          ??_Timer_INIT 0190  
                          init_fetch0 1675                             __Umul8_16 0801  
                         __pdataBANK0 0063                           __pdataBANK1 00D4  
                         __pdataBANK3 01B2                        ?_decrease_Temp 0070  
        ?_Disable_Heating_and_Cooling 0070                             ___fladd@a 0074  
                           ___fladd@b 0070                    __end_of__i1fptable 0057  
                           ___fldiv@a 0040                             ___fldiv@b 0044  
                     Seperate_Num@Num 007A                             ___flmul@a 002A  
                           ___flmul@b 0026                             ___latbits 0002  
                       __pcstackBANK0 0020                         __pcstackBANK1 00A0  
                       __pcstackBANK3 0190                    __end_of_Sense_Temp 08F1  
                   __size_of___xxtofl 00BC             __size_ofi1_I2C_Write_Data 001B  
                     i1___xxtofl@sign 0020                    __end_of_Timer_INIT 1663  
                        _current_Temp 01B2                           _EEPROM_Read 085E  
            ISR_CallBack@Temp_average 00A0                   __end_ofi1_I2C_Start 15CF  
                           __pnvBANK1 00D3                       ?_I2C_Write_Data 0070  
                           __pfunctab 004D              __end_ofi1_Wait_IdleState 15FA  
             __end_of_Disable_Display 15B0                 __size_of_Select_Digit 0024  
                            ?___fladd 0070                              ?___fldiv 0040  
                            ?___awdiv 0070                              ?___awmod 0070  
                            ?___flmul 0026                              ?___fltol 0070  
                            ?___lldiv 0190                            ?__Umul8_16 0070  
                __size_of_Display_Num 0023                              _I2C_NACK 1641  
       ??_Disable_Heating_and_Cooling 0070                              _ADC_INIT 1706  
                            _I2C_Stop 1623                              _ADC_Read 1607  
                 i1_I2C_Write_Address 1631                 __size_of_ISR_CallBack 0195  
                i1I2C_Write_Data@Data 0070                     interrupt_function 0004  
                        _Select_Digit 1748                 __end_of_increase_Temp 085E  
               __end_of_I2C_Read_Data 16E7                  ?i1_I2C_Write_Address 0070  
                            _GO_nDONE 00FA                 __size_of_Seperate_Num 002E  
                     ??_decrease_Temp 0074                              _SSD_INIT 15C0  
                     _EX_INT_CallBack 00D3                          _ISR_CallBack 064C  
                __size_of_Master_INIT 0032                              i1fptable 004E  
                            i1fptotal 0002                           i1_I2C_Start 15C6  
                        _Seperate_Num 176C     __size_of_Heating_and_Cooling_INIT 000B  
           ?_Heating_and_Cooling_INIT 0070                 ??i1_I2C_Write_Address 0070  
        __size_of_Heating_and_Cooling 00EB                      ?_Disable_Display 0070  
               ISR_CallBack@Milli_Sec 00CE                           ??__Umul8_16 0072  
                    __size_of___fladd 0294                      __size_of___fldiv 01DD  
                    __size_of___awdiv 0067                      __size_of___awmod 0059  
                    __size_of___flmul 0361                      __size_of___fltol 007A  
                    __size_of___lldiv 0068                              ___xxtofl 0C7C  
          EX_Interrupt_INIT@PtrToFunc 0190                              __ptext10 085E  
                            __ptext11 07E1                              __ptext20 169C  
                            __ptext12 1688                              __ptext21 064C  
                            __ptext13 1623                              __ptext30 0A19  
                            __ptext22 0828                              __ptext14 15CF  
                            __ptext31 03B8                              __ptext23 17CC  
                            __ptext15 16CC                              __ptext40 08F1  
                            __ptext32 089D                              __ptext24 16E7  
                            __ptext16 1641                              __ptext41 094A  
                            __ptext33 0BC0                              __ptext25 16B1  
                            __ptext17 15FA                              __ptext42 1748  
                            __ptext34 0057                              __ptext26 1631  
                            __ptext18 15B0                              __ptext43 15BA  
                            __ptext35 0801                              __ptext27 1615  
                            __ptext19 1706                              __ptext44 15AB  
                            __ptext36 0E23                              __ptext28 15C6  
                            __ptext37 1607                              __ptext29 15ED  
                            __ptext38 1725                              __ptext39 176C  
                    i1_I2C_Write_Data 16B1                         ?_EEPROM_Write 0071  
                       __size_of_main 0089                          _Setting_Mode 00D0  
                   _EX_Interrupt_INIT 1663                            i1_I2C_Stop 1615  
                  ?_EX_Interrupt_INIT 0070                              init_ram0 1679  
                 ??_EX_Interrupt_INIT 0190                        ??_EEPROM_Write 0073  
                            intlevel1 004D                          ?_EEPROM_Read 0191  
                    ___lldiv@dividend 0194                      ??_I2C_Write_Data 0190  
            I2C_Write_Address@Address 0190                    EEPROM_Read@address 0191  
           __end_of_EX_Interrupt_INIT 1675                     ?i1_Wait_IdleState 0070  
             __size_of_Wait_IdleState 000D                    ??i1_Wait_IdleState 0070  
              __Umul8_16@multiplicand 0070                      ___lldiv@quotient 0199  
                       ___fladd@signs 0078            i1I2C_Write_Address@Address 0070  
                  I2C_Write_Data@Data 0190                          ___fladd@aexp 0079  
                        ___fladd@bexp 007A                       EEPROM_Read@Data 0192  
                __Umul8_16@multiplier 0078                       EEPROM_Read@page 0193  
                 EEPROM_Write@address 0071                     __Umul8_16@product 0074  
                       ??_Display_Num 007B  
